
system:     file format elf32-i386


Disassembly of section .text.main:

00010000 <main-0x10>:
   10000:	18 66 90             	sbb    %ah,-0x70(%esi)
   10003:	66 90                	xchg   %ax,%ax
   10005:	66 90                	xchg   %ax,%ax
   10007:	66 90                	xchg   %ax,%ax
   10009:	66 90                	xchg   %ax,%ax
   1000b:	66 90                	xchg   %ax,%ax
   1000d:	66 90                	xchg   %ax,%ax
   1000f:	90                   	nop

00010010 <main>:
   10010:	55                   	push   %ebp
   10011:	89 e5                	mov    %esp,%ebp
   10013:	83 e4 f0             	and    $0xfffffff0,%esp
   10016:	83 ec 20             	sub    $0x20,%esp
   10019:	e8 82 17 00 00       	call   117a0 <set_eflags>
   1001e:	ba 18 00 00 00       	mov    $0x18,%edx
   10023:	b8 18 00 00 00       	mov    $0x18,%eax
   10028:	fc                   	cld    
   10029:	8e d8                	mov    %eax,%ds
   1002b:	8e c0                	mov    %eax,%es
   1002d:	8e e0                	mov    %eax,%fs
   1002f:	8e e8                	mov    %eax,%gs
   10031:	8e d2                	mov    %edx,%ss
   10033:	bc ec 9f 01 00       	mov    $0x19fec,%esp
   10038:	c7 04 24 61 28 01 00 	movl   $0x12861,(%esp)
   1003f:	e8 1c 05 00 00       	call   10560 <printk>
   10044:	e8 47 12 00 00       	call   11290 <setGdt>
   10049:	e8 42 01 00 00       	call   10190 <setIdt>
   1004e:	66 90                	xchg   %ax,%ax
   10050:	e8 7b 12 00 00       	call   112d0 <setTSS>
   10055:	e8 96 11 00 00       	call   111f0 <init_mm>
   1005a:	e8 21 07 00 00       	call   10780 <init_sched>
   1005f:	90                   	nop
   10060:	e8 0b 06 00 00       	call   10670 <init_idle>
   10065:	e8 86 06 00 00       	call   106f0 <init_task1>
   1006a:	e8 c1 18 00 00       	call   11930 <zeos_console_init>
   1006f:	a1 c4 3b 01 00       	mov    0x13bc4,%eax
   10074:	8b 00                	mov    (%eax),%eax
   10076:	89 44 24 08          	mov    %eax,0x8(%esp)
   1007a:	a1 cc 3b 01 00       	mov    0x13bcc,%eax
   1007f:	89 44 24 04          	mov    %eax,0x4(%esp)
   10083:	a1 c8 3b 01 00       	mov    0x13bc8,%eax
   10088:	8b 00                	mov    (%eax),%eax
   1008a:	05 00 00 01 00       	add    $0x10000,%eax
   1008f:	89 04 24             	mov    %eax,(%esp)
   10092:	e8 09 15 00 00       	call   115a0 <copy_data>
   10097:	c7 04 24 74 28 01 00 	movl   $0x12874,(%esp)
   1009e:	e8 bd 04 00 00       	call   10560 <printk>
   100a3:	c7 05 90 3c 01 00 00 	movl   $0x0,0x13c90
   100aa:	00 00 00 
   100ad:	e8 fe 26 00 00       	call   127b0 <zeos_init_auxjp>
   100b2:	e8 79 17 00 00       	call   11830 <enable_int>
   100b7:	c7 44 24 10 00 00 10 	movl   $0x100000,0x10(%esp)
   100be:	00 
   100bf:	c7 44 24 0c 23 00 00 	movl   $0x23,0xc(%esp)
   100c6:	00 
   100c7:	c7 44 24 08 f0 bf 11 	movl   $0x11bff0,0x8(%esp)
   100ce:	00 
   100cf:	c7 44 24 04 2b 00 00 	movl   $0x2b,0x4(%esp)
   100d6:	00 
   100d7:	c7 04 24 2b 00 00 00 	movl   $0x2b,(%esp)
   100de:	e8 0d 17 00 00       	call   117f0 <return_gate>
   100e3:	31 c0                	xor    %eax,%eax
   100e5:	c9                   	leave  
   100e6:	c3                   	ret    

Disassembly of section .text:

000100f0 <set_seg_regs>:
   100f0:	55                   	push   %ebp
   100f1:	89 e5                	mov    %esp,%ebp
   100f3:	8b 45 10             	mov    0x10(%ebp),%eax
   100f6:	8b 55 0c             	mov    0xc(%ebp),%edx
   100f9:	8d 48 ec             	lea    -0x14(%eax),%ecx
   100fc:	8b 45 08             	mov    0x8(%ebp),%eax
   100ff:	fc                   	cld    
   10100:	8e d8                	mov    %eax,%ds
   10102:	8e c0                	mov    %eax,%es
   10104:	8e e0                	mov    %eax,%fs
   10106:	8e e8                	mov    %eax,%gs
   10108:	8e d2                	mov    %edx,%ss
   1010a:	89 cc                	mov    %ecx,%esp
   1010c:	5d                   	pop    %ebp
   1010d:	c3                   	ret    
   1010e:	66 90                	xchg   %ax,%ax

00010110 <setInterruptHandler>:
   10110:	55                   	push   %ebp
   10111:	89 e5                	mov    %esp,%ebp
   10113:	0f b7 55 10          	movzwl 0x10(%ebp),%edx
   10117:	8b 45 08             	mov    0x8(%ebp),%eax
   1011a:	8b 4d 0c             	mov    0xc(%ebp),%ecx
   1011d:	5d                   	pop    %ebp
   1011e:	c1 e2 0d             	shl    $0xd,%edx
   10121:	66 81 ca 00 8e       	or     $0x8e00,%dx
   10126:	66 89 0c c5 c0 3c 01 	mov    %cx,0x13cc0(,%eax,8)
   1012d:	00 
   1012e:	c1 e9 10             	shr    $0x10,%ecx
   10131:	66 c7 04 c5 c2 3c 01 	movw   $0x10,0x13cc2(,%eax,8)
   10138:	00 10 00 
   1013b:	66 89 14 c5 c4 3c 01 	mov    %dx,0x13cc4(,%eax,8)
   10142:	00 
   10143:	66 89 0c c5 c6 3c 01 	mov    %cx,0x13cc6(,%eax,8)
   1014a:	00 
   1014b:	c3                   	ret    
   1014c:	8d 74 26 00          	lea    0x0(%esi,%eiz,1),%esi

00010150 <setTrapHandler>:
   10150:	55                   	push   %ebp
   10151:	89 e5                	mov    %esp,%ebp
   10153:	0f b7 55 10          	movzwl 0x10(%ebp),%edx
   10157:	8b 45 08             	mov    0x8(%ebp),%eax
   1015a:	8b 4d 0c             	mov    0xc(%ebp),%ecx
   1015d:	5d                   	pop    %ebp
   1015e:	c1 e2 0d             	shl    $0xd,%edx
   10161:	66 81 ca 00 8e       	or     $0x8e00,%dx
   10166:	66 89 0c c5 c0 3c 01 	mov    %cx,0x13cc0(,%eax,8)
   1016d:	00 
   1016e:	c1 e9 10             	shr    $0x10,%ecx
   10171:	66 c7 04 c5 c2 3c 01 	movw   $0x10,0x13cc2(,%eax,8)
   10178:	00 10 00 
   1017b:	66 89 14 c5 c4 3c 01 	mov    %dx,0x13cc4(,%eax,8)
   10182:	00 
   10183:	66 89 0c c5 c6 3c 01 	mov    %cx,0x13cc6(,%eax,8)
   1018a:	00 
   1018b:	c3                   	ret    
   1018c:	8d 74 26 00          	lea    0x0(%esi,%eiz,1),%esi

00010190 <setIdt>:
   10190:	55                   	push   %ebp
   10191:	b8 ff 07 00 00       	mov    $0x7ff,%eax
   10196:	89 e5                	mov    %esp,%ebp
   10198:	83 ec 18             	sub    $0x18,%esp
   1019b:	66 a3 a0 3c 01 00    	mov    %ax,0x13ca0
   101a1:	c7 05 a2 3c 01 00 c0 	movl   $0x13cc0,0x13ca2
   101a8:	3c 01 00 
   101ab:	e8 f0 1e 00 00       	call   120a0 <set_handlers>
   101b0:	b8 30 03 01 00       	mov    $0x10330,%eax
   101b5:	ba 10 00 00 00       	mov    $0x10,%edx
   101ba:	66 a3 c0 3d 01 00    	mov    %ax,0x13dc0
   101c0:	c1 e8 10             	shr    $0x10,%eax
   101c3:	b9 00 8e ff ff       	mov    $0xffff8e00,%ecx
   101c8:	66 a3 c6 3d 01 00    	mov    %ax,0x13dc6
   101ce:	b8 f5 02 01 00       	mov    $0x102f5,%eax
   101d3:	66 a3 c8 3d 01 00    	mov    %ax,0x13dc8
   101d9:	c1 e8 10             	shr    $0x10,%eax
   101dc:	66 89 15 c2 3d 01 00 	mov    %dx,0x13dc2
   101e3:	ba 10 00 00 00       	mov    $0x10,%edx
   101e8:	66 89 0d c4 3d 01 00 	mov    %cx,0x13dc4
   101ef:	b9 00 8e ff ff       	mov    $0xffff8e00,%ecx
   101f4:	66 a3 ce 3d 01 00    	mov    %ax,0x13dce
   101fa:	b8 6b 03 01 00       	mov    $0x1036b,%eax
   101ff:	66 89 15 ca 3d 01 00 	mov    %dx,0x13dca
   10206:	ba 10 00 00 00       	mov    $0x10,%edx
   1020b:	66 89 0d cc 3d 01 00 	mov    %cx,0x13dcc
   10212:	b9 00 ee ff ff       	mov    $0xffffee00,%ecx
   10217:	66 a3 c0 40 01 00    	mov    %ax,0x140c0
   1021d:	c1 e8 10             	shr    $0x10,%eax
   10220:	c7 04 24 a0 3c 01 00 	movl   $0x13ca0,(%esp)
   10227:	66 89 15 c2 40 01 00 	mov    %dx,0x140c2
   1022e:	66 89 0d c4 40 01 00 	mov    %cx,0x140c4
   10235:	66 a3 c6 40 01 00    	mov    %ax,0x140c6
   1023b:	e8 70 15 00 00       	call   117b0 <set_idt_reg>
   10240:	c9                   	leave  
   10241:	c3                   	ret    
   10242:	8d b4 26 00 00 00 00 	lea    0x0(%esi,%eiz,1),%esi
   10249:	8d bc 27 00 00 00 00 	lea    0x0(%edi,%eiz,1),%edi

00010250 <test_task_switch>:
   10250:	55                   	push   %ebp
   10251:	89 e5                	mov    %esp,%ebp
   10253:	83 ec 18             	sub    $0x18,%esp
   10256:	e8 b5 07 00 00       	call   10a10 <current>
   1025b:	83 38 01             	cmpl   $0x1,(%eax)
   1025e:	74 10                	je     10270 <test_task_switch+0x20>
   10260:	a1 c4 44 01 00       	mov    0x144c4,%eax
   10265:	89 04 24             	mov    %eax,(%esp)
   10268:	e8 b3 05 00 00       	call   10820 <task_switch>
   1026d:	c9                   	leave  
   1026e:	c3                   	ret    
   1026f:	90                   	nop
   10270:	a1 c8 44 01 00       	mov    0x144c8,%eax
   10275:	89 04 24             	mov    %eax,(%esp)
   10278:	e8 a3 05 00 00       	call   10820 <task_switch>
   1027d:	c9                   	leave  
   1027e:	c3                   	ret    
   1027f:	90                   	nop

00010280 <clock_service_routine>:
   10280:	55                   	push   %ebp
   10281:	89 e5                	mov    %esp,%ebp
   10283:	83 ec 08             	sub    $0x8,%esp
   10286:	83 05 90 3c 01 00 01 	addl   $0x1,0x13c90
   1028d:	e8 8e 1a 00 00       	call   11d20 <zeos_show_clock>
   10292:	e8 82 17 00 00       	call   11a19 <zeos_update_read_console_emul>
   10297:	c9                   	leave  
   10298:	e9 33 07 00 00       	jmp    109d0 <schedule>
   1029d:	8d 76 00             	lea    0x0(%esi),%esi

000102a0 <keyboard_service_routine>:
   102a0:	55                   	push   %ebp
   102a1:	89 e5                	mov    %esp,%ebp
   102a3:	83 ec 18             	sub    $0x18,%esp
   102a6:	c7 04 24 60 00 00 00 	movl   $0x60,(%esp)
   102ad:	e8 9e 01 00 00       	call   10450 <inb>
   102b2:	84 c0                	test   %al,%al
   102b4:	78 02                	js     102b8 <keyboard_service_routine+0x18>
   102b6:	c9                   	leave  
   102b7:	c3                   	ret    
   102b8:	83 e0 7f             	and    $0x7f,%eax
   102bb:	0f b6 90 e0 3b 01 00 	movzbl 0x13be0(%eax),%edx
   102c2:	b8 63 00 00 00       	mov    $0x63,%eax
   102c7:	84 d2                	test   %dl,%dl
   102c9:	75 25                	jne    102f0 <keyboard_service_routine+0x50>
   102cb:	89 44 24 08          	mov    %eax,0x8(%esp)
   102cf:	c7 44 24 04 17 00 00 	movl   $0x17,0x4(%esp)
   102d6:	00 
   102d7:	c7 04 24 00 00 00 00 	movl   $0x0,(%esp)
   102de:	e8 2d 02 00 00       	call   10510 <printc_xy>
   102e3:	c9                   	leave  
   102e4:	e9 67 ff ff ff       	jmp    10250 <test_task_switch>
   102e9:	8d b4 26 00 00 00 00 	lea    0x0(%esi,%eiz,1),%esi
   102f0:	0f be c2             	movsbl %dl,%eax
   102f3:	eb d6                	jmp    102cb <keyboard_service_routine+0x2b>

000102f5 <keyboard_handler>:
   102f5:	0f a8                	push   %gs
   102f7:	0f a0                	push   %fs
   102f9:	06                   	push   %es
   102fa:	1e                   	push   %ds
   102fb:	50                   	push   %eax
   102fc:	55                   	push   %ebp
   102fd:	57                   	push   %edi
   102fe:	56                   	push   %esi
   102ff:	52                   	push   %edx
   10300:	51                   	push   %ecx
   10301:	53                   	push   %ebx
   10302:	ba 18 00 00 00       	mov    $0x18,%edx
   10307:	8e da                	mov    %edx,%ds
   10309:	8e c2                	mov    %edx,%es
   1030b:	50                   	push   %eax
   1030c:	e8 1f 08 00 00       	call   10b30 <user_to_system>
   10311:	58                   	pop    %eax
   10312:	b0 20                	mov    $0x20,%al
   10314:	e6 20                	out    %al,$0x20
   10316:	e8 85 ff ff ff       	call   102a0 <keyboard_service_routine>
   1031b:	50                   	push   %eax
   1031c:	e8 3f 08 00 00       	call   10b60 <system_to_user>
   10321:	58                   	pop    %eax
   10322:	5b                   	pop    %ebx
   10323:	59                   	pop    %ecx
   10324:	5a                   	pop    %edx
   10325:	5e                   	pop    %esi
   10326:	5f                   	pop    %edi
   10327:	5d                   	pop    %ebp
   10328:	58                   	pop    %eax
   10329:	1f                   	pop    %ds
   1032a:	07                   	pop    %es
   1032b:	0f a1                	pop    %fs
   1032d:	0f a9                	pop    %gs
   1032f:	cf                   	iret   

00010330 <clock_interrupt_handler>:
   10330:	0f a8                	push   %gs
   10332:	0f a0                	push   %fs
   10334:	06                   	push   %es
   10335:	1e                   	push   %ds
   10336:	50                   	push   %eax
   10337:	55                   	push   %ebp
   10338:	57                   	push   %edi
   10339:	56                   	push   %esi
   1033a:	52                   	push   %edx
   1033b:	51                   	push   %ecx
   1033c:	53                   	push   %ebx
   1033d:	ba 18 00 00 00       	mov    $0x18,%edx
   10342:	8e da                	mov    %edx,%ds
   10344:	8e c2                	mov    %edx,%es
   10346:	50                   	push   %eax
   10347:	e8 e4 07 00 00       	call   10b30 <user_to_system>
   1034c:	58                   	pop    %eax
   1034d:	b0 20                	mov    $0x20,%al
   1034f:	e6 20                	out    %al,$0x20
   10351:	e8 2a ff ff ff       	call   10280 <clock_service_routine>
   10356:	50                   	push   %eax
   10357:	e8 04 08 00 00       	call   10b60 <system_to_user>
   1035c:	58                   	pop    %eax
   1035d:	5b                   	pop    %ebx
   1035e:	59                   	pop    %ecx
   1035f:	5a                   	pop    %edx
   10360:	5e                   	pop    %esi
   10361:	5f                   	pop    %edi
   10362:	5d                   	pop    %ebp
   10363:	58                   	pop    %eax
   10364:	1f                   	pop    %ds
   10365:	07                   	pop    %es
   10366:	0f a1                	pop    %fs
   10368:	0f a9                	pop    %gs
   1036a:	cf                   	iret   

0001036b <system_call_handler>:
   1036b:	0f a8                	push   %gs
   1036d:	0f a0                	push   %fs
   1036f:	06                   	push   %es
   10370:	1e                   	push   %ds
   10371:	50                   	push   %eax
   10372:	55                   	push   %ebp
   10373:	57                   	push   %edi
   10374:	56                   	push   %esi
   10375:	52                   	push   %edx
   10376:	51                   	push   %ecx
   10377:	53                   	push   %ebx
   10378:	ba 18 00 00 00       	mov    $0x18,%edx
   1037d:	8e da                	mov    %edx,%ds
   1037f:	8e c2                	mov    %edx,%es
   10381:	50                   	push   %eax
   10382:	e8 a9 07 00 00       	call   10b30 <user_to_system>
   10387:	58                   	pop    %eax
   10388:	83 f8 00             	cmp    $0x0,%eax
   1038b:	7c 10                	jl     1039d <err>
   1038d:	3d 24 00 00 00       	cmp    $0x24,%eax
   10392:	7f 09                	jg     1039d <err>
   10394:	ff 14 85 bb 03 01 00 	call   *0x103bb(,%eax,4)
   1039b:	eb 05                	jmp    103a2 <fin>

0001039d <err>:
   1039d:	b8 da ff ff ff       	mov    $0xffffffda,%eax

000103a2 <fin>:
   103a2:	89 44 24 18          	mov    %eax,0x18(%esp)
   103a6:	50                   	push   %eax
   103a7:	e8 b4 07 00 00       	call   10b60 <system_to_user>
   103ac:	58                   	pop    %eax
   103ad:	5b                   	pop    %ebx
   103ae:	59                   	pop    %ecx
   103af:	5a                   	pop    %edx
   103b0:	5e                   	pop    %esi
   103b1:	5f                   	pop    %edi
   103b2:	5d                   	pop    %ebp
   103b3:	58                   	pop    %eax
   103b4:	1f                   	pop    %ds
   103b5:	07                   	pop    %es
   103b6:	0f a1                	pop    %fs
   103b8:	0f a9                	pop    %gs
   103ba:	cf                   	iret   

000103bb <sys_call_table>:
   103bb:	90                   	nop
   103bc:	0b 01                	or     (%ecx),%eax
   103be:	00 00                	add    %al,(%eax)
   103c0:	0e                   	push   %cs
   103c1:	01 00                	add    %eax,(%eax)
   103c3:	b0 0b                	mov    $0xb,%al
   103c5:	01 00                	add    %eax,(%eax)
   103c7:	59                   	pop    %ecx
   103c8:	1c 01                	sbb    $0x1,%al
   103ca:	00 80 0e 01 00 90    	add    %al,-0x6ffffef2(%eax)
   103d0:	0b 01                	or     (%ecx),%eax
   103d2:	00 90 0b 01 00 90    	add    %dl,-0x6ffffef5(%eax)
   103d8:	0b 01                	or     (%ecx),%eax
   103da:	00 90 0b 01 00 90    	add    %dl,-0x6ffffef5(%eax)
   103e0:	0b 01                	or     (%ecx),%eax
   103e2:	00 70 0f             	add    %dh,0xf(%eax)
   103e5:	01 00                	add    %eax,(%eax)
   103e7:	90                   	nop
   103e8:	0b 01                	or     (%ecx),%eax
   103ea:	00 90 0b 01 00 90    	add    %dl,-0x6ffffef5(%eax)
   103f0:	0b 01                	or     (%ecx),%eax
   103f2:	00 90 0b 01 00 90    	add    %dl,-0x6ffffef5(%eax)
   103f8:	0b 01                	or     (%ecx),%eax
   103fa:	00 90 0b 01 00 e4    	add    %dl,-0x1bfffef5(%eax)
   10400:	1b 01                	sbb    (%ecx),%eax
   10402:	00 90 0b 01 00 90    	add    %dl,-0x6ffffef5(%eax)
   10408:	0b 01                	or     (%ecx),%eax
   1040a:	00 a0 0b 01 00 90    	add    %ah,-0x6ffffef5(%eax)
   10410:	0b 01                	or     (%ecx),%eax
   10412:	00 90 0b 01 00 90    	add    %dl,-0x6ffffef5(%eax)
   10418:	0b 01                	or     (%ecx),%eax
   1041a:	00 90 0b 01 00 90    	add    %dl,-0x6ffffef5(%eax)
   10420:	0b 01                	or     (%ecx),%eax
   10422:	00 90 0b 01 00 90    	add    %dl,-0x6ffffef5(%eax)
   10428:	0b 01                	or     (%ecx),%eax
   1042a:	00 90 0b 01 00 90    	add    %dl,-0x6ffffef5(%eax)
   10430:	0b 01                	or     (%ecx),%eax
   10432:	00 90 0b 01 00 90    	add    %dl,-0x6ffffef5(%eax)
   10438:	0b 01                	or     (%ecx),%eax
   1043a:	00 90 0b 01 00 90    	add    %dl,-0x6ffffef5(%eax)
   10440:	0b 01                	or     (%ecx),%eax
   10442:	00 90 0b 01 00 80    	add    %dl,-0x7ffffef5(%eax)
   10448:	0f 01 00             	sgdtl  (%eax)
   1044b:	66 90                	xchg   %ax,%ax
   1044d:	66 90                	xchg   %ax,%ax
   1044f:	90                   	nop

00010450 <inb>:
   10450:	55                   	push   %ebp
   10451:	89 e5                	mov    %esp,%ebp
   10453:	8b 55 08             	mov    0x8(%ebp),%edx
   10456:	ec                   	in     (%dx),%al
   10457:	5d                   	pop    %ebp
   10458:	c3                   	ret    
   10459:	8d b4 26 00 00 00 00 	lea    0x0(%esi,%eiz,1),%esi

00010460 <printc>:
   10460:	55                   	push   %ebp
   10461:	89 e5                	mov    %esp,%ebp
   10463:	56                   	push   %esi
   10464:	8b 45 08             	mov    0x8(%ebp),%eax
   10467:	53                   	push   %ebx
   10468:	88 c0                	mov    %al,%al
   1046a:	e6 e9                	out    %al,$0xe9
   1046c:	3c 0a                	cmp    $0xa,%al
   1046e:	74 68                	je     104d8 <printc+0x78>
   10470:	0f b6 c8             	movzbl %al,%ecx
   10473:	0f b6 05 42 3c 01 00 	movzbl 0x13c42,%eax
   1047a:	0f b6 1d c0 44 01 00 	movzbl 0x144c0,%ebx
   10481:	80 cd 02             	or     $0x2,%ch
   10484:	8d 14 80             	lea    (%eax,%eax,4),%edx
   10487:	c1 e2 04             	shl    $0x4,%edx
   1048a:	0f b6 f3             	movzbl %bl,%esi
   1048d:	8d b4 32 00 c0 05 00 	lea    0x5c000(%edx,%esi,1),%esi
   10494:	83 c3 01             	add    $0x1,%ebx
   10497:	01 f6                	add    %esi,%esi
   10499:	80 fb 4f             	cmp    $0x4f,%bl
   1049c:	77 12                	ja     104b0 <printc+0x50>
   1049e:	88 1d c0 44 01 00    	mov    %bl,0x144c0
   104a4:	66 89 0e             	mov    %cx,(%esi)
   104a7:	5b                   	pop    %ebx
   104a8:	5e                   	pop    %esi
   104a9:	5d                   	pop    %ebp
   104aa:	c3                   	ret    
   104ab:	90                   	nop
   104ac:	8d 74 26 00          	lea    0x0(%esi,%eiz,1),%esi
   104b0:	8d 58 01             	lea    0x1(%eax),%ebx
   104b3:	ba 1f 85 eb 51       	mov    $0x51eb851f,%edx
   104b8:	89 d8                	mov    %ebx,%eax
   104ba:	f7 ea                	imul   %edx
   104bc:	c6 05 c0 44 01 00 00 	movb   $0x0,0x144c0
   104c3:	c1 ea 03             	shr    $0x3,%edx
   104c6:	8d 04 92             	lea    (%edx,%edx,4),%eax
   104c9:	8d 04 80             	lea    (%eax,%eax,4),%eax
   104cc:	29 c3                	sub    %eax,%ebx
   104ce:	88 1d 42 3c 01 00    	mov    %bl,0x13c42
   104d4:	eb ce                	jmp    104a4 <printc+0x44>
   104d6:	66 90                	xchg   %ax,%ax
   104d8:	0f b6 0d 42 3c 01 00 	movzbl 0x13c42,%ecx
   104df:	ba 1f 85 eb 51       	mov    $0x51eb851f,%edx
   104e4:	5b                   	pop    %ebx
   104e5:	c6 05 c0 44 01 00 00 	movb   $0x0,0x144c0
   104ec:	5e                   	pop    %esi
   104ed:	83 c1 01             	add    $0x1,%ecx
   104f0:	89 c8                	mov    %ecx,%eax
   104f2:	f7 ea                	imul   %edx
   104f4:	5d                   	pop    %ebp
   104f5:	c1 ea 03             	shr    $0x3,%edx
   104f8:	8d 04 92             	lea    (%edx,%edx,4),%eax
   104fb:	8d 04 80             	lea    (%eax,%eax,4),%eax
   104fe:	29 c1                	sub    %eax,%ecx
   10500:	88 0d 42 3c 01 00    	mov    %cl,0x13c42
   10506:	c3                   	ret    
   10507:	89 f6                	mov    %esi,%esi
   10509:	8d bc 27 00 00 00 00 	lea    0x0(%edi,%eiz,1),%edi

00010510 <printc_xy>:
   10510:	55                   	push   %ebp
   10511:	89 e5                	mov    %esp,%ebp
   10513:	56                   	push   %esi
   10514:	53                   	push   %ebx
   10515:	83 ec 04             	sub    $0x4,%esp
   10518:	8b 45 08             	mov    0x8(%ebp),%eax
   1051b:	0f b6 35 c0 44 01 00 	movzbl 0x144c0,%esi
   10522:	0f b6 1d 42 3c 01 00 	movzbl 0x13c42,%ebx
   10529:	a2 c0 44 01 00       	mov    %al,0x144c0
   1052e:	8b 45 0c             	mov    0xc(%ebp),%eax
   10531:	a2 42 3c 01 00       	mov    %al,0x13c42
   10536:	0f be 45 10          	movsbl 0x10(%ebp),%eax
   1053a:	89 04 24             	mov    %eax,(%esp)
   1053d:	e8 1e ff ff ff       	call   10460 <printc>
   10542:	89 f0                	mov    %esi,%eax
   10544:	88 1d 42 3c 01 00    	mov    %bl,0x13c42
   1054a:	a2 c0 44 01 00       	mov    %al,0x144c0
   1054f:	83 c4 04             	add    $0x4,%esp
   10552:	5b                   	pop    %ebx
   10553:	5e                   	pop    %esi
   10554:	5d                   	pop    %ebp
   10555:	c3                   	ret    
   10556:	8d 76 00             	lea    0x0(%esi),%esi
   10559:	8d bc 27 00 00 00 00 	lea    0x0(%edi,%eiz,1),%edi

00010560 <printk>:
   10560:	55                   	push   %ebp
   10561:	89 e5                	mov    %esp,%ebp
   10563:	53                   	push   %ebx
   10564:	83 ec 04             	sub    $0x4,%esp
   10567:	8b 5d 08             	mov    0x8(%ebp),%ebx
   1056a:	0f be 03             	movsbl (%ebx),%eax
   1056d:	83 c3 01             	add    $0x1,%ebx
   10570:	84 c0                	test   %al,%al
   10572:	74 17                	je     1058b <printk+0x2b>
   10574:	8d 74 26 00          	lea    0x0(%esi,%eiz,1),%esi
   10578:	89 04 24             	mov    %eax,(%esp)
   1057b:	83 c3 01             	add    $0x1,%ebx
   1057e:	e8 dd fe ff ff       	call   10460 <printc>
   10583:	0f be 43 ff          	movsbl -0x1(%ebx),%eax
   10587:	84 c0                	test   %al,%al
   10589:	75 ed                	jne    10578 <printk+0x18>
   1058b:	83 c4 04             	add    $0x4,%esp
   1058e:	5b                   	pop    %ebx
   1058f:	5d                   	pop    %ebp
   10590:	c3                   	ret    
   10591:	66 90                	xchg   %ax,%ax
   10593:	66 90                	xchg   %ax,%ax
   10595:	66 90                	xchg   %ax,%ax
   10597:	66 90                	xchg   %ax,%ax
   10599:	66 90                	xchg   %ax,%ax
   1059b:	66 90                	xchg   %ax,%ax
   1059d:	66 90                	xchg   %ax,%ax
   1059f:	90                   	nop

000105a0 <cpu_idle>:
   105a0:	55                   	push   %ebp
   105a1:	89 e5                	mov    %esp,%ebp
   105a3:	fb                   	sti    
   105a4:	eb fe                	jmp    105a4 <cpu_idle+0x4>
   105a6:	8d 76 00             	lea    0x0(%esi),%esi
   105a9:	8d bc 27 00 00 00 00 	lea    0x0(%edi,%eiz,1),%edi

000105b0 <list_head_to_task_struct>:
   105b0:	55                   	push   %ebp
   105b1:	89 e5                	mov    %esp,%ebp
   105b3:	8b 45 08             	mov    0x8(%ebp),%eax
   105b6:	5d                   	pop    %ebp
   105b7:	83 e8 08             	sub    $0x8,%eax
   105ba:	c3                   	ret    
   105bb:	90                   	nop
   105bc:	8d 74 26 00          	lea    0x0(%esi,%eiz,1),%esi

000105c0 <get_DIR>:
   105c0:	55                   	push   %ebp
   105c1:	89 e5                	mov    %esp,%ebp
   105c3:	8b 45 08             	mov    0x8(%ebp),%eax
   105c6:	5d                   	pop    %ebp
   105c7:	8b 40 04             	mov    0x4(%eax),%eax
   105ca:	c3                   	ret    
   105cb:	90                   	nop
   105cc:	8d 74 26 00          	lea    0x0(%esi,%eiz,1),%esi

000105d0 <get_PT>:
   105d0:	55                   	push   %ebp
   105d1:	89 e5                	mov    %esp,%ebp
   105d3:	8b 45 08             	mov    0x8(%ebp),%eax
   105d6:	5d                   	pop    %ebp
   105d7:	8b 40 04             	mov    0x4(%eax),%eax
   105da:	8b 00                	mov    (%eax),%eax
   105dc:	25 00 f0 ff ff       	and    $0xfffff000,%eax
   105e1:	c3                   	ret    
   105e2:	8d b4 26 00 00 00 00 	lea    0x0(%esi,%eiz,1),%esi
   105e9:	8d bc 27 00 00 00 00 	lea    0x0(%edi,%eiz,1),%edi

000105f0 <allocate_DIR>:
   105f0:	55                   	push   %ebp
   105f1:	89 e5                	mov    %esp,%ebp
   105f3:	8b 55 08             	mov    0x8(%ebp),%edx
   105f6:	89 d0                	mov    %edx,%eax
   105f8:	2b 05 44 3c 01 00    	sub    0x13c44,%eax
   105fe:	25 00 f0 ff ff       	and    $0xfffff000,%eax
   10603:	05 00 b0 02 00       	add    $0x2b000,%eax
   10608:	89 42 04             	mov    %eax,0x4(%edx)
   1060b:	b8 01 00 00 00       	mov    $0x1,%eax
   10610:	5d                   	pop    %ebp
   10611:	c3                   	ret    
   10612:	8d b4 26 00 00 00 00 	lea    0x0(%esi,%eiz,1),%esi
   10619:	8d bc 27 00 00 00 00 	lea    0x0(%edi,%eiz,1),%edi

00010620 <init_stats>:
   10620:	55                   	push   %ebp
   10621:	89 e5                	mov    %esp,%ebp
   10623:	53                   	push   %ebx
   10624:	83 ec 04             	sub    $0x4,%esp
   10627:	8b 5d 08             	mov    0x8(%ebp),%ebx
   1062a:	c7 03 00 00 00 00    	movl   $0x0,(%ebx)
   10630:	c7 43 04 00 00 00 00 	movl   $0x0,0x4(%ebx)
   10637:	c7 43 08 00 00 00 00 	movl   $0x0,0x8(%ebx)
   1063e:	c7 43 0c 00 00 00 00 	movl   $0x0,0xc(%ebx)
   10645:	e8 f6 10 00 00       	call   11740 <get_ticks>
   1064a:	c7 43 14 00 00 00 00 	movl   $0x0,0x14(%ebx)
   10651:	89 43 10             	mov    %eax,0x10(%ebx)
   10654:	e8 e7 10 00 00       	call   11740 <get_ticks>
   10659:	89 43 18             	mov    %eax,0x18(%ebx)
   1065c:	83 c4 04             	add    $0x4,%esp
   1065f:	5b                   	pop    %ebx
   10660:	5d                   	pop    %ebp
   10661:	c3                   	ret    
   10662:	8d b4 26 00 00 00 00 	lea    0x0(%esi,%eiz,1),%esi
   10669:	8d bc 27 00 00 00 00 	lea    0x0(%edi,%eiz,1),%edi

00010670 <init_idle>:
   10670:	55                   	push   %ebp
   10671:	89 e5                	mov    %esp,%ebp
   10673:	56                   	push   %esi
   10674:	53                   	push   %ebx
   10675:	83 ec 10             	sub    $0x10,%esp
   10678:	8b 1d cc 44 01 00    	mov    0x144cc,%ebx
   1067e:	89 1c 24             	mov    %ebx,(%esp)
   10681:	8d 73 f8             	lea    -0x8(%ebx),%esi
   10684:	e8 17 12 00 00       	call   118a0 <list_del>
   10689:	8d 43 10             	lea    0x10(%ebx),%eax
   1068c:	89 35 c8 44 01 00    	mov    %esi,0x144c8
   10692:	c7 43 0c 0a 00 00 00 	movl   $0xa,0xc(%ebx)
   10699:	c7 43 f8 00 00 00 00 	movl   $0x0,-0x8(%ebx)
   106a0:	c7 43 2c 00 00 00 00 	movl   $0x0,0x2c(%ebx)
   106a7:	89 04 24             	mov    %eax,(%esp)
   106aa:	e8 71 ff ff ff       	call   10620 <init_stats>
   106af:	89 f0                	mov    %esi,%eax
   106b1:	2b 05 44 3c 01 00    	sub    0x13c44,%eax
   106b7:	c7 83 f4 0f 00 00 a0 	movl   $0x105a0,0xff4(%ebx)
   106be:	05 01 00 
   106c1:	c7 83 f0 0f 00 00 00 	movl   $0x0,0xff0(%ebx)
   106c8:	00 00 00 
   106cb:	25 00 f0 ff ff       	and    $0xfffff000,%eax
   106d0:	05 00 b0 02 00       	add    $0x2b000,%eax
   106d5:	89 43 fc             	mov    %eax,-0x4(%ebx)
   106d8:	8d 83 f0 0f 00 00    	lea    0xff0(%ebx),%eax
   106de:	89 43 08             	mov    %eax,0x8(%ebx)
   106e1:	83 c4 10             	add    $0x10,%esp
   106e4:	5b                   	pop    %ebx
   106e5:	5e                   	pop    %esi
   106e6:	5d                   	pop    %ebp
   106e7:	c3                   	ret    
   106e8:	90                   	nop
   106e9:	8d b4 26 00 00 00 00 	lea    0x0(%esi,%eiz,1),%esi

000106f0 <init_task1>:
   106f0:	55                   	push   %ebp
   106f1:	89 e5                	mov    %esp,%ebp
   106f3:	56                   	push   %esi
   106f4:	53                   	push   %ebx
   106f5:	83 ec 10             	sub    $0x10,%esp
   106f8:	8b 1d cc 44 01 00    	mov    0x144cc,%ebx
   106fe:	89 1c 24             	mov    %ebx,(%esp)
   10701:	8d 73 f8             	lea    -0x8(%ebx),%esi
   10704:	e8 97 11 00 00       	call   118a0 <list_del>
   10709:	8d 43 10             	lea    0x10(%ebx),%eax
   1070c:	89 35 c4 44 01 00    	mov    %esi,0x144c4
   10712:	c7 43 0c 0a 00 00 00 	movl   $0xa,0xc(%ebx)
   10719:	c7 43 f8 01 00 00 00 	movl   $0x1,-0x8(%ebx)
   10720:	c7 43 2c 00 00 00 00 	movl   $0x0,0x2c(%ebx)
   10727:	89 04 24             	mov    %eax,(%esp)
   1072a:	c7 05 80 3c 01 00 0a 	movl   $0xa,0x13c80
   10731:	00 00 00 
   10734:	e8 e7 fe ff ff       	call   10620 <init_stats>
   10739:	89 f0                	mov    %esi,%eax
   1073b:	2b 05 44 3c 01 00    	sub    0x13c44,%eax
   10741:	25 00 f0 ff ff       	and    $0xfffff000,%eax
   10746:	05 00 b0 02 00       	add    $0x2b000,%eax
   1074b:	89 43 fc             	mov    %eax,-0x4(%ebx)
   1074e:	89 34 24             	mov    %esi,(%esp)
   10751:	e8 aa 09 00 00       	call   11100 <set_user_pages>
   10756:	8d 83 f8 0f 00 00    	lea    0xff8(%ebx),%eax
   1075c:	a3 24 45 01 00       	mov    %eax,0x14524
   10761:	8b 43 fc             	mov    -0x4(%ebx),%eax
   10764:	89 04 24             	mov    %eax,(%esp)
   10767:	e8 64 0a 00 00       	call   111d0 <set_cr3>
   1076c:	83 c4 10             	add    $0x10,%esp
   1076f:	5b                   	pop    %ebx
   10770:	5e                   	pop    %esi
   10771:	5d                   	pop    %ebp
   10772:	c3                   	ret    
   10773:	8d b6 00 00 00 00    	lea    0x0(%esi),%esi
   10779:	8d bc 27 00 00 00 00 	lea    0x0(%edi,%eiz,1),%edi

00010780 <init_sched>:
   10780:	55                   	push   %ebp
   10781:	89 e5                	mov    %esp,%ebp
   10783:	53                   	push   %ebx
   10784:	31 db                	xor    %ebx,%ebx
   10786:	83 ec 14             	sub    $0x14,%esp
   10789:	c7 04 24 cc 44 01 00 	movl   $0x144cc,(%esp)
   10790:	e8 bb 10 00 00       	call   11850 <INIT_LIST_HEAD>
   10795:	8d 76 00             	lea    0x0(%esi),%esi
   10798:	a1 44 3c 01 00       	mov    0x13c44,%eax
   1079d:	c7 44 24 04 cc 44 01 	movl   $0x144cc,0x4(%esp)
   107a4:	00 
   107a5:	01 d8                	add    %ebx,%eax
   107a7:	81 c3 00 10 00 00    	add    $0x1000,%ebx
   107ad:	83 c0 08             	add    $0x8,%eax
   107b0:	89 04 24             	mov    %eax,(%esp)
   107b3:	e8 c8 10 00 00       	call   11880 <list_add_tail>
   107b8:	81 fb 00 a0 00 00    	cmp    $0xa000,%ebx
   107be:	75 d8                	jne    10798 <init_sched+0x18>
   107c0:	c7 04 24 d4 44 01 00 	movl   $0x144d4,(%esp)
   107c7:	e8 84 10 00 00       	call   11850 <INIT_LIST_HEAD>
   107cc:	83 c4 14             	add    $0x14,%esp
   107cf:	5b                   	pop    %ebx
   107d0:	5d                   	pop    %ebp
   107d1:	e9 bd 12 00 00       	jmp    11a93 <init_sched_policy>
   107d6:	8d 76 00             	lea    0x0(%esi),%esi
   107d9:	8d bc 27 00 00 00 00 	lea    0x0(%edi,%eiz,1),%edi

000107e0 <inner_task_switch>:
   107e0:	55                   	push   %ebp
   107e1:	89 e5                	mov    %esp,%ebp
   107e3:	53                   	push   %ebx
   107e4:	83 ec 14             	sub    $0x14,%esp
   107e7:	8b 5d 08             	mov    0x8(%ebp),%ebx
   107ea:	8d 83 00 10 00 00    	lea    0x1000(%ebx),%eax
   107f0:	a3 24 45 01 00       	mov    %eax,0x14524
   107f5:	8b 43 04             	mov    0x4(%ebx),%eax
   107f8:	89 04 24             	mov    %eax,(%esp)
   107fb:	e8 d0 09 00 00       	call   111d0 <set_cr3>
   10800:	89 e0                	mov    %esp,%eax
   10802:	25 00 f0 ff ff       	and    $0xfffff000,%eax
   10807:	89 68 10             	mov    %ebp,0x10(%eax)
   1080a:	8b 63 10             	mov    0x10(%ebx),%esp
   1080d:	5d                   	pop    %ebp
   1080e:	c3                   	ret    
   1080f:	83 c4 14             	add    $0x14,%esp
   10812:	5b                   	pop    %ebx
   10813:	5d                   	pop    %ebp
   10814:	c3                   	ret    
   10815:	8d 74 26 00          	lea    0x0(%esi,%eiz,1),%esi
   10819:	8d bc 27 00 00 00 00 	lea    0x0(%edi,%eiz,1),%edi

00010820 <task_switch>:
   10820:	55                   	push   %ebp
   10821:	89 e5                	mov    %esp,%ebp
   10823:	83 ec 18             	sub    $0x18,%esp
   10826:	56                   	push   %esi
   10827:	57                   	push   %edi
   10828:	53                   	push   %ebx
   10829:	8b 45 08             	mov    0x8(%ebp),%eax
   1082c:	89 04 24             	mov    %eax,(%esp)
   1082f:	e8 ac ff ff ff       	call   107e0 <inner_task_switch>
   10834:	5b                   	pop    %ebx
   10835:	5f                   	pop    %edi
   10836:	5e                   	pop    %esi
   10837:	c9                   	leave  
   10838:	c3                   	ret    
   10839:	8d b4 26 00 00 00 00 	lea    0x0(%esi,%eiz,1),%esi

00010840 <get_quantum>:
   10840:	55                   	push   %ebp
   10841:	89 e5                	mov    %esp,%ebp
   10843:	8b 45 08             	mov    0x8(%ebp),%eax
   10846:	5d                   	pop    %ebp
   10847:	8b 40 14             	mov    0x14(%eax),%eax
   1084a:	c3                   	ret    
   1084b:	90                   	nop
   1084c:	8d 74 26 00          	lea    0x0(%esi,%eiz,1),%esi

00010850 <set_quantum>:
   10850:	55                   	push   %ebp
   10851:	89 e5                	mov    %esp,%ebp
   10853:	8b 55 0c             	mov    0xc(%ebp),%edx
   10856:	8b 45 08             	mov    0x8(%ebp),%eax
   10859:	89 50 14             	mov    %edx,0x14(%eax)
   1085c:	5d                   	pop    %ebp
   1085d:	c3                   	ret    
   1085e:	66 90                	xchg   %ax,%ax

00010860 <update_sched_data_rr>:
   10860:	55                   	push   %ebp
   10861:	89 e5                	mov    %esp,%ebp
   10863:	83 2d 80 3c 01 00 01 	subl   $0x1,0x13c80
   1086a:	5d                   	pop    %ebp
   1086b:	c3                   	ret    
   1086c:	8d 74 26 00          	lea    0x0(%esi,%eiz,1),%esi

00010870 <needs_sched_rr>:
   10870:	8b 15 80 3c 01 00    	mov    0x13c80,%edx
   10876:	85 d2                	test   %edx,%edx
   10878:	7e 06                	jle    10880 <needs_sched_rr+0x10>
   1087a:	31 c0                	xor    %eax,%eax
   1087c:	c3                   	ret    
   1087d:	8d 76 00             	lea    0x0(%esi),%esi
   10880:	55                   	push   %ebp
   10881:	89 e5                	mov    %esp,%ebp
   10883:	83 ec 18             	sub    $0x18,%esp
   10886:	c7 04 24 d4 44 01 00 	movl   $0x144d4,(%esp)
   1088d:	e8 4e 10 00 00       	call   118e0 <list_empty>
   10892:	89 c2                	mov    %eax,%edx
   10894:	b8 01 00 00 00       	mov    $0x1,%eax
   10899:	85 d2                	test   %edx,%edx
   1089b:	74 1a                	je     108b7 <needs_sched_rr+0x47>
   1089d:	a1 80 3c 01 00       	mov    0x13c80,%eax
   108a2:	85 c0                	test   %eax,%eax
   108a4:	7f 0f                	jg     108b5 <needs_sched_rr+0x45>
   108a6:	89 e0                	mov    %esp,%eax
   108a8:	25 00 f0 ff ff       	and    $0xfffff000,%eax
   108ad:	8b 40 14             	mov    0x14(%eax),%eax
   108b0:	a3 80 3c 01 00       	mov    %eax,0x13c80
   108b5:	31 c0                	xor    %eax,%eax
   108b7:	c9                   	leave  
   108b8:	c3                   	ret    
   108b9:	8d b4 26 00 00 00 00 	lea    0x0(%esi,%eiz,1),%esi

000108c0 <update_process_state_rr>:
   108c0:	55                   	push   %ebp
   108c1:	89 e5                	mov    %esp,%ebp
   108c3:	56                   	push   %esi
   108c4:	53                   	push   %ebx
   108c5:	83 ec 10             	sub    $0x10,%esp
   108c8:	8b 5d 08             	mov    0x8(%ebp),%ebx
   108cb:	8b 75 0c             	mov    0xc(%ebp),%esi
   108ce:	8b 43 34             	mov    0x34(%ebx),%eax
   108d1:	85 c0                	test   %eax,%eax
   108d3:	75 3b                	jne    10910 <update_process_state_rr+0x50>
   108d5:	85 f6                	test   %esi,%esi
   108d7:	74 27                	je     10900 <update_process_state_rr+0x40>
   108d9:	8d 43 08             	lea    0x8(%ebx),%eax
   108dc:	89 74 24 04          	mov    %esi,0x4(%esp)
   108e0:	89 04 24             	mov    %eax,(%esp)
   108e3:	e8 98 0f 00 00       	call   11880 <list_add_tail>
   108e8:	81 fe d4 44 01 00    	cmp    $0x144d4,%esi
   108ee:	74 30                	je     10920 <update_process_state_rr+0x60>
   108f0:	c7 43 34 02 00 00 00 	movl   $0x2,0x34(%ebx)
   108f7:	83 c4 10             	add    $0x10,%esp
   108fa:	5b                   	pop    %ebx
   108fb:	5e                   	pop    %esi
   108fc:	5d                   	pop    %ebp
   108fd:	c3                   	ret    
   108fe:	66 90                	xchg   %ax,%ax
   10900:	c7 43 34 00 00 00 00 	movl   $0x0,0x34(%ebx)
   10907:	83 c4 10             	add    $0x10,%esp
   1090a:	5b                   	pop    %ebx
   1090b:	5e                   	pop    %esi
   1090c:	5d                   	pop    %ebp
   1090d:	c3                   	ret    
   1090e:	66 90                	xchg   %ax,%ax
   10910:	8d 43 08             	lea    0x8(%ebx),%eax
   10913:	89 04 24             	mov    %eax,(%esp)
   10916:	e8 85 0f 00 00       	call   118a0 <list_del>
   1091b:	eb b8                	jmp    108d5 <update_process_state_rr+0x15>
   1091d:	8d 76 00             	lea    0x0(%esi),%esi
   10920:	8d 43 28             	lea    0x28(%ebx),%eax
   10923:	89 44 24 04          	mov    %eax,0x4(%esp)
   10927:	8d 43 1c             	lea    0x1c(%ebx),%eax
   1092a:	89 04 24             	mov    %eax,(%esp)
   1092d:	e8 be 0f 00 00       	call   118f0 <update_stats>
   10932:	c7 43 34 01 00 00 00 	movl   $0x1,0x34(%ebx)
   10939:	eb bc                	jmp    108f7 <update_process_state_rr+0x37>
   1093b:	90                   	nop
   1093c:	8d 74 26 00          	lea    0x0(%esi,%eiz,1),%esi

00010940 <sched_next_rr>:
   10940:	55                   	push   %ebp
   10941:	89 e5                	mov    %esp,%ebp
   10943:	53                   	push   %ebx
   10944:	83 ec 14             	sub    $0x14,%esp
   10947:	c7 04 24 d4 44 01 00 	movl   $0x144d4,(%esp)
   1094e:	e8 8d 0f 00 00       	call   118e0 <list_empty>
   10953:	8b 1d c8 44 01 00    	mov    0x144c8,%ebx
   10959:	85 c0                	test   %eax,%eax
   1095b:	74 5b                	je     109b8 <sched_next_rr+0x78>
   1095d:	8b 43 14             	mov    0x14(%ebx),%eax
   10960:	c7 43 34 00 00 00 00 	movl   $0x0,0x34(%ebx)
   10967:	a3 80 3c 01 00       	mov    %eax,0x13c80
   1096c:	89 e2                	mov    %esp,%edx
   1096e:	89 e0                	mov    %esp,%eax
   10970:	81 e2 00 f0 ff ff    	and    $0xfffff000,%edx
   10976:	25 00 f0 ff ff       	and    $0xfffff000,%eax
   1097b:	83 c2 28             	add    $0x28,%edx
   1097e:	83 c0 1c             	add    $0x1c,%eax
   10981:	89 54 24 04          	mov    %edx,0x4(%esp)
   10985:	89 04 24             	mov    %eax,(%esp)
   10988:	e8 63 0f 00 00       	call   118f0 <update_stats>
   1098d:	8d 43 28             	lea    0x28(%ebx),%eax
   10990:	89 44 24 04          	mov    %eax,0x4(%esp)
   10994:	8d 43 24             	lea    0x24(%ebx),%eax
   10997:	89 04 24             	mov    %eax,(%esp)
   1099a:	e8 51 0f 00 00       	call   118f0 <update_stats>
   1099f:	83 43 2c 01          	addl   $0x1,0x2c(%ebx)
   109a3:	89 1c 24             	mov    %ebx,(%esp)
   109a6:	e8 75 fe ff ff       	call   10820 <task_switch>
   109ab:	83 c4 14             	add    $0x14,%esp
   109ae:	5b                   	pop    %ebx
   109af:	5d                   	pop    %ebp
   109b0:	c3                   	ret    
   109b1:	8d b4 26 00 00 00 00 	lea    0x0(%esi,%eiz,1),%esi
   109b8:	8b 1d d4 44 01 00    	mov    0x144d4,%ebx
   109be:	89 1c 24             	mov    %ebx,(%esp)
   109c1:	83 eb 08             	sub    $0x8,%ebx
   109c4:	e8 d7 0e 00 00       	call   118a0 <list_del>
   109c9:	eb 92                	jmp    1095d <sched_next_rr+0x1d>
   109cb:	90                   	nop
   109cc:	8d 74 26 00          	lea    0x0(%esi,%eiz,1),%esi

000109d0 <schedule>:
   109d0:	55                   	push   %ebp
   109d1:	89 e5                	mov    %esp,%ebp
   109d3:	83 ec 18             	sub    $0x18,%esp
   109d6:	ff 15 78 4a 01 00    	call   *0x14a78
   109dc:	ff 15 7c 4a 01 00    	call   *0x14a7c
   109e2:	85 c0                	test   %eax,%eax
   109e4:	75 02                	jne    109e8 <schedule+0x18>
   109e6:	c9                   	leave  
   109e7:	c3                   	ret    
   109e8:	89 e0                	mov    %esp,%eax
   109ea:	25 00 f0 ff ff       	and    $0xfffff000,%eax
   109ef:	89 04 24             	mov    %eax,(%esp)
   109f2:	c7 44 24 04 d4 44 01 	movl   $0x144d4,0x4(%esp)
   109f9:	00 
   109fa:	ff 15 80 4a 01 00    	call   *0x14a80
   10a00:	a1 84 4a 01 00       	mov    0x14a84,%eax
   10a05:	c9                   	leave  
   10a06:	ff e0                	jmp    *%eax
   10a08:	90                   	nop
   10a09:	8d b4 26 00 00 00 00 	lea    0x0(%esi,%eiz,1),%esi

00010a10 <current>:
   10a10:	55                   	push   %ebp
   10a11:	89 e5                	mov    %esp,%ebp
   10a13:	89 e0                	mov    %esp,%eax
   10a15:	25 00 f0 ff ff       	and    $0xfffff000,%eax
   10a1a:	5d                   	pop    %ebp
   10a1b:	c3                   	ret    
   10a1c:	8d 74 26 00          	lea    0x0(%esi,%eiz,1),%esi

00010a20 <get_task_stats>:
   10a20:	55                   	push   %ebp
   10a21:	89 e5                	mov    %esp,%ebp
   10a23:	8b 45 08             	mov    0x8(%ebp),%eax
   10a26:	5d                   	pop    %ebp
   10a27:	83 c0 18             	add    $0x18,%eax
   10a2a:	c3                   	ret    
   10a2b:	90                   	nop
   10a2c:	8d 74 26 00          	lea    0x0(%esi,%eiz,1),%esi

00010a30 <get_task_list>:
   10a30:	55                   	push   %ebp
   10a31:	89 e5                	mov    %esp,%ebp
   10a33:	8b 45 08             	mov    0x8(%ebp),%eax
   10a36:	5d                   	pop    %ebp
   10a37:	83 c0 08             	add    $0x8,%eax
   10a3a:	c3                   	ret    
   10a3b:	90                   	nop
   10a3c:	8d 74 26 00          	lea    0x0(%esi,%eiz,1),%esi

00010a40 <block_process>:
   10a40:	55                   	push   %ebp
   10a41:	89 e5                	mov    %esp,%ebp
   10a43:	53                   	push   %ebx
   10a44:	83 ec 14             	sub    $0x14,%esp
   10a47:	89 e3                	mov    %esp,%ebx
   10a49:	8b 45 08             	mov    0x8(%ebp),%eax
   10a4c:	81 e3 00 f0 ff ff    	and    $0xfffff000,%ebx
   10a52:	89 1c 24             	mov    %ebx,(%esp)
   10a55:	89 44 24 04          	mov    %eax,0x4(%esp)
   10a59:	ff 15 80 4a 01 00    	call   *0x14a80
   10a5f:	e8 dc 0c 00 00       	call   11740 <get_ticks>
   10a64:	2b 43 28             	sub    0x28(%ebx),%eax
   10a67:	89 43 1c             	mov    %eax,0x1c(%ebx)
   10a6a:	e8 d1 0c 00 00       	call   11740 <get_ticks>
   10a6f:	89 43 28             	mov    %eax,0x28(%ebx)
   10a72:	a1 84 4a 01 00       	mov    0x14a84,%eax
   10a77:	83 c4 14             	add    $0x14,%esp
   10a7a:	5b                   	pop    %ebx
   10a7b:	5d                   	pop    %ebp
   10a7c:	ff e0                	jmp    *%eax
   10a7e:	66 90                	xchg   %ax,%ax

00010a80 <unblock_process>:
   10a80:	55                   	push   %ebp
   10a81:	89 e5                	mov    %esp,%ebp
   10a83:	56                   	push   %esi
   10a84:	53                   	push   %ebx
   10a85:	83 ec 10             	sub    $0x10,%esp
   10a88:	8b 5d 08             	mov    0x8(%ebp),%ebx
   10a8b:	c7 44 24 04 d4 44 01 	movl   $0x144d4,0x4(%esp)
   10a92:	00 
   10a93:	89 1c 24             	mov    %ebx,(%esp)
   10a96:	ff 15 80 4a 01 00    	call   *0x14a80
   10a9c:	8b 73 20             	mov    0x20(%ebx),%esi
   10a9f:	e8 9c 0c 00 00       	call   11740 <get_ticks>
   10aa4:	2b 73 28             	sub    0x28(%ebx),%esi
   10aa7:	01 c6                	add    %eax,%esi
   10aa9:	89 73 20             	mov    %esi,0x20(%ebx)
   10aac:	e8 8f 0c 00 00       	call   11740 <get_ticks>
   10ab1:	89 43 28             	mov    %eax,0x28(%ebx)
   10ab4:	ff 15 7c 4a 01 00    	call   *0x14a7c
   10aba:	85 c0                	test   %eax,%eax
   10abc:	75 0a                	jne    10ac8 <unblock_process+0x48>
   10abe:	83 c4 10             	add    $0x10,%esp
   10ac1:	5b                   	pop    %ebx
   10ac2:	5e                   	pop    %esi
   10ac3:	5d                   	pop    %ebp
   10ac4:	c3                   	ret    
   10ac5:	8d 76 00             	lea    0x0(%esi),%esi
   10ac8:	89 e0                	mov    %esp,%eax
   10aca:	25 00 f0 ff ff       	and    $0xfffff000,%eax
   10acf:	89 04 24             	mov    %eax,(%esp)
   10ad2:	c7 44 24 04 d4 44 01 	movl   $0x144d4,0x4(%esp)
   10ad9:	00 
   10ada:	ff 15 80 4a 01 00    	call   *0x14a80
   10ae0:	a1 84 4a 01 00       	mov    0x14a84,%eax
   10ae5:	83 c4 10             	add    $0x10,%esp
   10ae8:	5b                   	pop    %ebx
   10ae9:	5e                   	pop    %esi
   10aea:	5d                   	pop    %ebp
   10aeb:	ff e0                	jmp    *%eax
   10aed:	66 90                	xchg   %ax,%ax
   10aef:	90                   	nop

00010af0 <ret_from_fork>:
   10af0:	55                   	push   %ebp
   10af1:	31 c0                	xor    %eax,%eax
   10af3:	89 e5                	mov    %esp,%ebp
   10af5:	5d                   	pop    %ebp
   10af6:	c3                   	ret    
   10af7:	89 f6                	mov    %esi,%esi
   10af9:	8d bc 27 00 00 00 00 	lea    0x0(%edi,%eiz,1),%edi

00010b00 <check_fd>:
   10b00:	55                   	push   %ebp
   10b01:	89 e5                	mov    %esp,%ebp
   10b03:	83 7d 08 01          	cmpl   $0x1,0x8(%ebp)
   10b07:	75 17                	jne    10b20 <check_fd+0x20>
   10b09:	31 c0                	xor    %eax,%eax
   10b0b:	83 7d 0c 01          	cmpl   $0x1,0xc(%ebp)
   10b0f:	5d                   	pop    %ebp
   10b10:	0f 94 c0             	sete   %al
   10b13:	83 e8 01             	sub    $0x1,%eax
   10b16:	83 e0 f3             	and    $0xfffffff3,%eax
   10b19:	c3                   	ret    
   10b1a:	8d b6 00 00 00 00    	lea    0x0(%esi),%esi
   10b20:	b8 f7 ff ff ff       	mov    $0xfffffff7,%eax
   10b25:	5d                   	pop    %ebp
   10b26:	c3                   	ret    
   10b27:	89 f6                	mov    %esi,%esi
   10b29:	8d bc 27 00 00 00 00 	lea    0x0(%edi,%eiz,1),%edi

00010b30 <user_to_system>:
   10b30:	55                   	push   %ebp
   10b31:	89 e5                	mov    %esp,%ebp
   10b33:	53                   	push   %ebx
   10b34:	83 ec 14             	sub    $0x14,%esp
   10b37:	e8 d4 fe ff ff       	call   10a10 <current>
   10b3c:	89 c3                	mov    %eax,%ebx
   10b3e:	e8 cd fe ff ff       	call   10a10 <current>
   10b43:	83 c3 28             	add    $0x28,%ebx
   10b46:	89 5c 24 04          	mov    %ebx,0x4(%esp)
   10b4a:	83 c0 18             	add    $0x18,%eax
   10b4d:	89 04 24             	mov    %eax,(%esp)
   10b50:	e8 9b 0d 00 00       	call   118f0 <update_stats>
   10b55:	83 c4 14             	add    $0x14,%esp
   10b58:	5b                   	pop    %ebx
   10b59:	5d                   	pop    %ebp
   10b5a:	c3                   	ret    
   10b5b:	90                   	nop
   10b5c:	8d 74 26 00          	lea    0x0(%esi,%eiz,1),%esi

00010b60 <system_to_user>:
   10b60:	55                   	push   %ebp
   10b61:	89 e5                	mov    %esp,%ebp
   10b63:	53                   	push   %ebx
   10b64:	83 ec 14             	sub    $0x14,%esp
   10b67:	e8 a4 fe ff ff       	call   10a10 <current>
   10b6c:	89 c3                	mov    %eax,%ebx
   10b6e:	e8 9d fe ff ff       	call   10a10 <current>
   10b73:	83 c3 28             	add    $0x28,%ebx
   10b76:	89 5c 24 04          	mov    %ebx,0x4(%esp)
   10b7a:	83 c0 1c             	add    $0x1c,%eax
   10b7d:	89 04 24             	mov    %eax,(%esp)
   10b80:	e8 6b 0d 00 00       	call   118f0 <update_stats>
   10b85:	83 c4 14             	add    $0x14,%esp
   10b88:	5b                   	pop    %ebx
   10b89:	5d                   	pop    %ebp
   10b8a:	c3                   	ret    
   10b8b:	90                   	nop
   10b8c:	8d 74 26 00          	lea    0x0(%esi,%eiz,1),%esi

00010b90 <sys_ni_syscall>:
   10b90:	55                   	push   %ebp
   10b91:	b8 da ff ff ff       	mov    $0xffffffda,%eax
   10b96:	89 e5                	mov    %esp,%ebp
   10b98:	5d                   	pop    %ebp
   10b99:	c3                   	ret    
   10b9a:	8d b6 00 00 00 00    	lea    0x0(%esi),%esi

00010ba0 <sys_getpid>:
   10ba0:	55                   	push   %ebp
   10ba1:	89 e5                	mov    %esp,%ebp
   10ba3:	83 ec 08             	sub    $0x8,%esp
   10ba6:	e8 65 fe ff ff       	call   10a10 <current>
   10bab:	8b 00                	mov    (%eax),%eax
   10bad:	c9                   	leave  
   10bae:	c3                   	ret    
   10baf:	90                   	nop

00010bb0 <sys_fork>:
   10bb0:	55                   	push   %ebp
   10bb1:	89 e5                	mov    %esp,%ebp
   10bb3:	57                   	push   %edi
   10bb4:	56                   	push   %esi
   10bb5:	53                   	push   %ebx
   10bb6:	83 ec 2c             	sub    $0x2c,%esp
   10bb9:	c7 04 24 cc 44 01 00 	movl   $0x144cc,(%esp)
   10bc0:	e8 1b 0d 00 00       	call   118e0 <list_empty>
   10bc5:	85 c0                	test   %eax,%eax
   10bc7:	0f 85 23 02 00 00    	jne    10df0 <sys_fork+0x240>
   10bcd:	a1 cc 44 01 00       	mov    0x144cc,%eax
   10bd2:	31 f6                	xor    %esi,%esi
   10bd4:	89 c3                	mov    %eax,%ebx
   10bd6:	89 04 24             	mov    %eax,(%esp)
   10bd9:	89 45 dc             	mov    %eax,-0x24(%ebp)
   10bdc:	e8 bf 0c 00 00       	call   118a0 <list_del>
   10be1:	89 1c 24             	mov    %ebx,(%esp)
   10be4:	e8 c7 f9 ff ff       	call   105b0 <list_head_to_task_struct>
   10be9:	89 c3                	mov    %eax,%ebx
   10beb:	89 45 e0             	mov    %eax,-0x20(%ebp)
   10bee:	e8 1d fe ff ff       	call   10a10 <current>
   10bf3:	89 5c 24 04          	mov    %ebx,0x4(%esp)
   10bf7:	c7 44 24 08 00 10 00 	movl   $0x1000,0x8(%esp)
   10bfe:	00 
   10bff:	89 04 24             	mov    %eax,(%esp)
   10c02:	e8 99 09 00 00       	call   115a0 <copy_data>
   10c07:	89 1c 24             	mov    %ebx,(%esp)
   10c0a:	e8 e1 f9 ff ff       	call   105f0 <allocate_DIR>
   10c0f:	89 1c 24             	mov    %ebx,(%esp)
   10c12:	e8 b9 f9 ff ff       	call   105d0 <get_PT>
   10c17:	89 c3                	mov    %eax,%ebx
   10c19:	8d b4 26 00 00 00 00 	lea    0x0(%esi,%eiz,1),%esi
   10c20:	e8 1b 08 00 00       	call   11440 <alloc_frame>
   10c25:	83 f8 ff             	cmp    $0xffffffff,%eax
   10c28:	0f 84 66 01 00 00    	je     10d94 <sys_fork+0x1e4>
   10c2e:	89 44 24 08          	mov    %eax,0x8(%esp)
   10c32:	8d 86 08 01 00 00    	lea    0x108(%esi),%eax
   10c38:	83 c6 01             	add    $0x1,%esi
   10c3b:	89 44 24 04          	mov    %eax,0x4(%esp)
   10c3f:	89 1c 24             	mov    %ebx,(%esp)
   10c42:	e8 b9 08 00 00       	call   11500 <set_ss_pag>
   10c47:	83 fe 14             	cmp    $0x14,%esi
   10c4a:	75 d4                	jne    10c20 <sys_fork+0x70>
   10c4c:	e8 bf fd ff ff       	call   10a10 <current>
   10c51:	31 ff                	xor    %edi,%edi
   10c53:	89 04 24             	mov    %eax,(%esp)
   10c56:	e8 75 f9 ff ff       	call   105d0 <get_PT>
   10c5b:	89 c6                	mov    %eax,%esi
   10c5d:	8d 76 00             	lea    0x0(%esi),%esi
   10c60:	89 7c 24 04          	mov    %edi,0x4(%esp)
   10c64:	89 34 24             	mov    %esi,(%esp)
   10c67:	e8 d4 08 00 00       	call   11540 <get_frame>
   10c6c:	89 7c 24 04          	mov    %edi,0x4(%esp)
   10c70:	83 c7 01             	add    $0x1,%edi
   10c73:	89 1c 24             	mov    %ebx,(%esp)
   10c76:	89 44 24 08          	mov    %eax,0x8(%esp)
   10c7a:	e8 81 08 00 00       	call   11500 <set_ss_pag>
   10c7f:	81 ff 00 01 00 00    	cmp    $0x100,%edi
   10c85:	75 d9                	jne    10c60 <sys_fork+0xb0>
   10c87:	90                   	nop
   10c88:	89 7c 24 04          	mov    %edi,0x4(%esp)
   10c8c:	89 34 24             	mov    %esi,(%esp)
   10c8f:	e8 ac 08 00 00       	call   11540 <get_frame>
   10c94:	89 7c 24 04          	mov    %edi,0x4(%esp)
   10c98:	83 c7 01             	add    $0x1,%edi
   10c9b:	89 1c 24             	mov    %ebx,(%esp)
   10c9e:	89 44 24 08          	mov    %eax,0x8(%esp)
   10ca2:	e8 59 08 00 00       	call   11500 <set_ss_pag>
   10ca7:	81 ff 08 01 00 00    	cmp    $0x108,%edi
   10cad:	75 d9                	jne    10c88 <sys_fork+0xd8>
   10caf:	66 bf 1c 01          	mov    $0x11c,%di
   10cb3:	ba 08 01 00 00       	mov    $0x108,%edx
   10cb8:	89 54 24 04          	mov    %edx,0x4(%esp)
   10cbc:	89 1c 24             	mov    %ebx,(%esp)
   10cbf:	89 55 e4             	mov    %edx,-0x1c(%ebp)
   10cc2:	e8 79 08 00 00       	call   11540 <get_frame>
   10cc7:	89 7c 24 04          	mov    %edi,0x4(%esp)
   10ccb:	89 34 24             	mov    %esi,(%esp)
   10cce:	89 44 24 08          	mov    %eax,0x8(%esp)
   10cd2:	e8 29 08 00 00       	call   11500 <set_ss_pag>
   10cd7:	8b 55 e4             	mov    -0x1c(%ebp),%edx
   10cda:	89 f8                	mov    %edi,%eax
   10cdc:	c1 e0 0c             	shl    $0xc,%eax
   10cdf:	89 44 24 04          	mov    %eax,0x4(%esp)
   10ce3:	c7 44 24 08 00 10 00 	movl   $0x1000,0x8(%esp)
   10cea:	00 
   10ceb:	89 d0                	mov    %edx,%eax
   10ced:	c1 e0 0c             	shl    $0xc,%eax
   10cf0:	89 04 24             	mov    %eax,(%esp)
   10cf3:	e8 a8 08 00 00       	call   115a0 <copy_data>
   10cf8:	89 7c 24 04          	mov    %edi,0x4(%esp)
   10cfc:	83 c7 01             	add    $0x1,%edi
   10cff:	89 34 24             	mov    %esi,(%esp)
   10d02:	e8 19 08 00 00       	call   11520 <del_ss_pag>
   10d07:	8b 55 e4             	mov    -0x1c(%ebp),%edx
   10d0a:	83 c2 01             	add    $0x1,%edx
   10d0d:	81 fa 1c 01 00 00    	cmp    $0x11c,%edx
   10d13:	75 a3                	jne    10cb8 <sys_fork+0x108>
   10d15:	e8 f6 fc ff ff       	call   10a10 <current>
   10d1a:	89 eb                	mov    %ebp,%ebx
   10d1c:	89 04 24             	mov    %eax,(%esp)
   10d1f:	e8 9c f8 ff ff       	call   105c0 <get_DIR>
   10d24:	89 04 24             	mov    %eax,(%esp)
   10d27:	e8 a4 04 00 00       	call   111d0 <set_cr3>
   10d2c:	a1 48 3c 01 00       	mov    0x13c48,%eax
   10d31:	8b 75 e0             	mov    -0x20(%ebp),%esi
   10d34:	83 c0 01             	add    $0x1,%eax
   10d37:	a3 48 3c 01 00       	mov    %eax,0x13c48
   10d3c:	89 06                	mov    %eax,(%esi)
   10d3e:	e8 cd fc ff ff       	call   10a10 <current>
   10d43:	29 c3                	sub    %eax,%ebx
   10d45:	8d 04 1e             	lea    (%esi,%ebx,1),%eax
   10d48:	8d 50 04             	lea    0x4(%eax),%edx
   10d4b:	89 56 10             	mov    %edx,0x10(%esi)
   10d4e:	8b 10                	mov    (%eax),%edx
   10d50:	89 46 10             	mov    %eax,0x10(%esi)
   10d53:	c7 00 f0 0a 01 00    	movl   $0x10af0,(%eax)
   10d59:	8b 46 10             	mov    0x10(%esi),%eax
   10d5c:	8d 48 fc             	lea    -0x4(%eax),%ecx
   10d5f:	89 4e 10             	mov    %ecx,0x10(%esi)
   10d62:	89 50 fc             	mov    %edx,-0x4(%eax)
   10d65:	8d 46 18             	lea    0x18(%esi),%eax
   10d68:	89 04 24             	mov    %eax,(%esp)
   10d6b:	e8 b0 f8 ff ff       	call   10620 <init_stats>
   10d70:	8d 46 08             	lea    0x8(%esi),%eax
   10d73:	c7 46 34 01 00 00 00 	movl   $0x1,0x34(%esi)
   10d7a:	89 04 24             	mov    %eax,(%esp)
   10d7d:	c7 44 24 04 d4 44 01 	movl   $0x144d4,0x4(%esp)
   10d84:	00 
   10d85:	e8 f6 0a 00 00       	call   11880 <list_add_tail>
   10d8a:	8b 06                	mov    (%esi),%eax
   10d8c:	83 c4 2c             	add    $0x2c,%esp
   10d8f:	5b                   	pop    %ebx
   10d90:	5e                   	pop    %esi
   10d91:	5f                   	pop    %edi
   10d92:	5d                   	pop    %ebp
   10d93:	c3                   	ret    
   10d94:	8d 86 08 01 00 00    	lea    0x108(%esi),%eax
   10d9a:	85 f6                	test   %esi,%esi
   10d9c:	89 45 e4             	mov    %eax,-0x1c(%ebp)
   10d9f:	bf 08 01 00 00       	mov    $0x108,%edi
   10da4:	74 2a                	je     10dd0 <sys_fork+0x220>
   10da6:	66 90                	xchg   %ax,%ax
   10da8:	89 7c 24 04          	mov    %edi,0x4(%esp)
   10dac:	89 1c 24             	mov    %ebx,(%esp)
   10daf:	e8 8c 07 00 00       	call   11540 <get_frame>
   10db4:	89 04 24             	mov    %eax,(%esp)
   10db7:	e8 24 07 00 00       	call   114e0 <free_frame>
   10dbc:	89 7c 24 04          	mov    %edi,0x4(%esp)
   10dc0:	83 c7 01             	add    $0x1,%edi
   10dc3:	89 1c 24             	mov    %ebx,(%esp)
   10dc6:	e8 55 07 00 00       	call   11520 <del_ss_pag>
   10dcb:	3b 7d e4             	cmp    -0x1c(%ebp),%edi
   10dce:	75 d8                	jne    10da8 <sys_fork+0x1f8>
   10dd0:	8b 45 dc             	mov    -0x24(%ebp),%eax
   10dd3:	c7 44 24 04 cc 44 01 	movl   $0x144cc,0x4(%esp)
   10dda:	00 
   10ddb:	89 04 24             	mov    %eax,(%esp)
   10dde:	e8 9d 0a 00 00       	call   11880 <list_add_tail>
   10de3:	83 c4 2c             	add    $0x2c,%esp
   10de6:	b8 f5 ff ff ff       	mov    $0xfffffff5,%eax
   10deb:	5b                   	pop    %ebx
   10dec:	5e                   	pop    %esi
   10ded:	5f                   	pop    %edi
   10dee:	5d                   	pop    %ebp
   10def:	c3                   	ret    
   10df0:	b8 f4 ff ff ff       	mov    $0xfffffff4,%eax
   10df5:	eb 95                	jmp    10d8c <sys_fork+0x1dc>
   10df7:	89 f6                	mov    %esi,%esi
   10df9:	8d bc 27 00 00 00 00 	lea    0x0(%edi,%eiz,1),%edi

00010e00 <sys_exit>:
   10e00:	55                   	push   %ebp
   10e01:	89 e5                	mov    %esp,%ebp
   10e03:	56                   	push   %esi
   10e04:	53                   	push   %ebx
   10e05:	bb 08 01 00 00       	mov    $0x108,%ebx
   10e0a:	83 ec 10             	sub    $0x10,%esp
   10e0d:	e8 fe fb ff ff       	call   10a10 <current>
   10e12:	89 04 24             	mov    %eax,(%esp)
   10e15:	e8 b6 f7 ff ff       	call   105d0 <get_PT>
   10e1a:	89 c6                	mov    %eax,%esi
   10e1c:	8d 74 26 00          	lea    0x0(%esi,%eiz,1),%esi
   10e20:	89 5c 24 04          	mov    %ebx,0x4(%esp)
   10e24:	89 34 24             	mov    %esi,(%esp)
   10e27:	e8 14 07 00 00       	call   11540 <get_frame>
   10e2c:	89 04 24             	mov    %eax,(%esp)
   10e2f:	e8 ac 06 00 00       	call   114e0 <free_frame>
   10e34:	89 5c 24 04          	mov    %ebx,0x4(%esp)
   10e38:	83 c3 01             	add    $0x1,%ebx
   10e3b:	89 34 24             	mov    %esi,(%esp)
   10e3e:	e8 dd 06 00 00       	call   11520 <del_ss_pag>
   10e43:	81 fb 1c 01 00 00    	cmp    $0x11c,%ebx
   10e49:	75 d5                	jne    10e20 <sys_exit+0x20>
   10e4b:	e8 c0 fb ff ff       	call   10a10 <current>
   10e50:	c7 44 24 04 cc 44 01 	movl   $0x144cc,0x4(%esp)
   10e57:	00 
   10e58:	83 c0 08             	add    $0x8,%eax
   10e5b:	89 04 24             	mov    %eax,(%esp)
   10e5e:	e8 1d 0a 00 00       	call   11880 <list_add_tail>
   10e63:	e8 a8 fb ff ff       	call   10a10 <current>
   10e68:	c7 00 ff ff ff ff    	movl   $0xffffffff,(%eax)
   10e6e:	83 c4 10             	add    $0x10,%esp
   10e71:	5b                   	pop    %ebx
   10e72:	5e                   	pop    %esi
   10e73:	5d                   	pop    %ebp
   10e74:	e9 c7 fa ff ff       	jmp    10940 <sched_next_rr>
   10e79:	8d b4 26 00 00 00 00 	lea    0x0(%esi,%eiz,1),%esi

00010e80 <sys_write>:
   10e80:	55                   	push   %ebp
   10e81:	b8 f7 ff ff ff       	mov    $0xfffffff7,%eax
   10e86:	89 e5                	mov    %esp,%ebp
   10e88:	57                   	push   %edi
   10e89:	56                   	push   %esi
   10e8a:	53                   	push   %ebx
   10e8b:	83 ec 3c             	sub    $0x3c,%esp
   10e8e:	8b 7d 0c             	mov    0xc(%ebp),%edi
   10e91:	83 7d 08 01          	cmpl   $0x1,0x8(%ebp)
   10e95:	74 09                	je     10ea0 <sys_write+0x20>
   10e97:	83 c4 3c             	add    $0x3c,%esp
   10e9a:	5b                   	pop    %ebx
   10e9b:	5e                   	pop    %esi
   10e9c:	5f                   	pop    %edi
   10e9d:	5d                   	pop    %ebp
   10e9e:	c3                   	ret    
   10e9f:	90                   	nop
   10ea0:	85 ff                	test   %edi,%edi
   10ea2:	0f 84 b8 00 00 00    	je     10f60 <sys_write+0xe0>
   10ea8:	8b 45 10             	mov    0x10(%ebp),%eax
   10eab:	85 c0                	test   %eax,%eax
   10ead:	0f 88 a3 00 00 00    	js     10f56 <sys_write+0xd6>
   10eb3:	83 7d 10 04          	cmpl   $0x4,0x10(%ebp)
   10eb7:	0f 8e 8f 00 00 00    	jle    10f4c <sys_write+0xcc>
   10ebd:	8b 45 10             	mov    0x10(%ebp),%eax
   10ec0:	31 f6                	xor    %esi,%esi
   10ec2:	8d 5d e4             	lea    -0x1c(%ebp),%ebx
   10ec5:	83 e8 05             	sub    $0x5,%eax
   10ec8:	89 45 d0             	mov    %eax,-0x30(%ebp)
   10ecb:	c1 6d d0 02          	shrl   $0x2,-0x30(%ebp)
   10ecf:	8b 45 d0             	mov    -0x30(%ebp),%eax
   10ed2:	8d 44 87 04          	lea    0x4(%edi,%eax,4),%eax
   10ed6:	89 45 d4             	mov    %eax,-0x2c(%ebp)
   10ed9:	8d b4 26 00 00 00 00 	lea    0x0(%esi,%eiz,1),%esi
   10ee0:	89 3c 24             	mov    %edi,(%esp)
   10ee3:	83 c7 04             	add    $0x4,%edi
   10ee6:	c7 44 24 08 04 00 00 	movl   $0x4,0x8(%esp)
   10eed:	00 
   10eee:	89 5c 24 04          	mov    %ebx,0x4(%esp)
   10ef2:	e8 19 07 00 00       	call   11610 <copy_from_user>
   10ef7:	c7 44 24 04 04 00 00 	movl   $0x4,0x4(%esp)
   10efe:	00 
   10eff:	89 1c 24             	mov    %ebx,(%esp)
   10f02:	e8 59 06 00 00       	call   11560 <sys_write_console>
   10f07:	01 c6                	add    %eax,%esi
   10f09:	3b 7d d4             	cmp    -0x2c(%ebp),%edi
   10f0c:	75 d2                	jne    10ee0 <sys_write+0x60>
   10f0e:	8b 45 d0             	mov    -0x30(%ebp),%eax
   10f11:	8b 55 10             	mov    0x10(%ebp),%edx
   10f14:	f7 d8                	neg    %eax
   10f16:	8d 44 82 fc          	lea    -0x4(%edx,%eax,4),%eax
   10f1a:	89 45 10             	mov    %eax,0x10(%ebp)
   10f1d:	8b 45 10             	mov    0x10(%ebp),%eax
   10f20:	89 5c 24 04          	mov    %ebx,0x4(%esp)
   10f24:	89 44 24 08          	mov    %eax,0x8(%esp)
   10f28:	8b 45 d4             	mov    -0x2c(%ebp),%eax
   10f2b:	89 04 24             	mov    %eax,(%esp)
   10f2e:	e8 dd 06 00 00       	call   11610 <copy_from_user>
   10f33:	8b 45 10             	mov    0x10(%ebp),%eax
   10f36:	89 1c 24             	mov    %ebx,(%esp)
   10f39:	89 44 24 04          	mov    %eax,0x4(%esp)
   10f3d:	e8 1e 06 00 00       	call   11560 <sys_write_console>
   10f42:	83 c4 3c             	add    $0x3c,%esp
   10f45:	5b                   	pop    %ebx
   10f46:	01 f0                	add    %esi,%eax
   10f48:	5e                   	pop    %esi
   10f49:	5f                   	pop    %edi
   10f4a:	5d                   	pop    %ebp
   10f4b:	c3                   	ret    
   10f4c:	89 7d d4             	mov    %edi,-0x2c(%ebp)
   10f4f:	31 f6                	xor    %esi,%esi
   10f51:	8d 5d e4             	lea    -0x1c(%ebp),%ebx
   10f54:	eb c7                	jmp    10f1d <sys_write+0x9d>
   10f56:	b8 ea ff ff ff       	mov    $0xffffffea,%eax
   10f5b:	e9 37 ff ff ff       	jmp    10e97 <sys_write+0x17>
   10f60:	b8 f2 ff ff ff       	mov    $0xfffffff2,%eax
   10f65:	e9 2d ff ff ff       	jmp    10e97 <sys_write+0x17>
   10f6a:	8d b6 00 00 00 00    	lea    0x0(%esi),%esi

00010f70 <sys_gettime>:
   10f70:	55                   	push   %ebp
   10f71:	a1 90 3c 01 00       	mov    0x13c90,%eax
   10f76:	89 e5                	mov    %esp,%ebp
   10f78:	5d                   	pop    %ebp
   10f79:	c3                   	ret    
   10f7a:	8d b6 00 00 00 00    	lea    0x0(%esi),%esi

00010f80 <sys_get_stats>:
   10f80:	55                   	push   %ebp
   10f81:	89 e5                	mov    %esp,%ebp
   10f83:	56                   	push   %esi
   10f84:	53                   	push   %ebx
   10f85:	83 ec 10             	sub    $0x10,%esp
   10f88:	8b 5d 0c             	mov    0xc(%ebp),%ebx
   10f8b:	c7 44 24 08 1c 00 00 	movl   $0x1c,0x8(%esp)
   10f92:	00 
   10f93:	8b 75 08             	mov    0x8(%ebp),%esi
   10f96:	c7 04 24 01 00 00 00 	movl   $0x1,(%esp)
   10f9d:	89 5c 24 04          	mov    %ebx,0x4(%esp)
   10fa1:	e8 4a 07 00 00       	call   116f0 <access_ok>
   10fa6:	85 c0                	test   %eax,%eax
   10fa8:	74 57                	je     11001 <sys_get_stats+0x81>
   10faa:	85 f6                	test   %esi,%esi
   10fac:	78 5a                	js     11008 <sys_get_stats+0x88>
   10fae:	a1 44 3c 01 00       	mov    0x13c44,%eax
   10fb3:	ba 0a 00 00 00       	mov    $0xa,%edx
   10fb8:	39 30                	cmp    %esi,(%eax)
   10fba:	74 1c                	je     10fd8 <sys_get_stats+0x58>
   10fbc:	05 00 10 00 00       	add    $0x1000,%eax
   10fc1:	83 ea 01             	sub    $0x1,%edx
   10fc4:	75 f2                	jne    10fb8 <sys_get_stats+0x38>
   10fc6:	b8 fd ff ff ff       	mov    $0xfffffffd,%eax
   10fcb:	83 c4 10             	add    $0x10,%esp
   10fce:	5b                   	pop    %ebx
   10fcf:	5e                   	pop    %esi
   10fd0:	5d                   	pop    %ebp
   10fd1:	c3                   	ret    
   10fd2:	8d b6 00 00 00 00    	lea    0x0(%esi),%esi
   10fd8:	8b 15 80 3c 01 00    	mov    0x13c80,%edx
   10fde:	83 c0 18             	add    $0x18,%eax
   10fe1:	89 50 18             	mov    %edx,0x18(%eax)
   10fe4:	89 5c 24 04          	mov    %ebx,0x4(%esp)
   10fe8:	c7 44 24 08 1c 00 00 	movl   $0x1c,0x8(%esp)
   10fef:	00 
   10ff0:	89 04 24             	mov    %eax,(%esp)
   10ff3:	e8 88 06 00 00       	call   11680 <copy_to_user>
   10ff8:	83 c4 10             	add    $0x10,%esp
   10ffb:	31 c0                	xor    %eax,%eax
   10ffd:	5b                   	pop    %ebx
   10ffe:	5e                   	pop    %esi
   10fff:	5d                   	pop    %ebp
   11000:	c3                   	ret    
   11001:	b8 f2 ff ff ff       	mov    $0xfffffff2,%eax
   11006:	eb c3                	jmp    10fcb <sys_get_stats+0x4b>
   11008:	b8 ea ff ff ff       	mov    $0xffffffea,%eax
   1100d:	eb bc                	jmp    10fcb <sys_get_stats+0x4b>
   1100f:	90                   	nop

00011010 <init_dir_pages>:
   11010:	55                   	push   %ebp
   11011:	ba 00 10 02 00       	mov    $0x21000,%edx
   11016:	89 e5                	mov    %esp,%ebp
   11018:	31 c0                	xor    %eax,%eax
   1101a:	53                   	push   %ebx
   1101b:	90                   	nop
   1101c:	8d 74 26 00          	lea    0x0(%esi,%eiz,1),%esi
   11020:	89 c1                	mov    %eax,%ecx
   11022:	89 d3                	mov    %edx,%ebx
   11024:	83 c0 01             	add    $0x1,%eax
   11027:	81 e3 00 f0 ff ff    	and    $0xfffff000,%ebx
   1102d:	c1 e1 0c             	shl    $0xc,%ecx
   11030:	81 c2 00 10 00 00    	add    $0x1000,%edx
   11036:	83 f8 0a             	cmp    $0xa,%eax
   11039:	89 99 00 b0 02 00    	mov    %ebx,0x2b000(%ecx)
   1103f:	c6 81 00 b0 02 00 07 	movb   $0x7,0x2b000(%ecx)
   11046:	75 d8                	jne    11020 <init_dir_pages+0x10>
   11048:	5b                   	pop    %ebx
   11049:	5d                   	pop    %ebp
   1104a:	c3                   	ret    
   1104b:	90                   	nop
   1104c:	8d 74 26 00          	lea    0x0(%esi,%eiz,1),%esi

00011050 <init_table_pages>:
   11050:	55                   	push   %ebp
   11051:	89 e5                	mov    %esp,%ebp
   11053:	57                   	push   %edi
   11054:	31 ff                	xor    %edi,%edi
   11056:	56                   	push   %esi
   11057:	53                   	push   %ebx
   11058:	83 ec 08             	sub    $0x8,%esp
   1105b:	c7 45 ec 00 50 01 00 	movl   $0x15000,-0x14(%ebp)
   11062:	c7 45 f0 00 00 02 00 	movl   $0x20000,-0x10(%ebp)
   11069:	c1 6d ec 0c          	shrl   $0xc,-0x14(%ebp)
   1106d:	c1 6d f0 0c          	shrl   $0xc,-0x10(%ebp)
   11071:	8d b4 26 00 00 00 00 	lea    0x0(%esi,%eiz,1),%esi
   11078:	89 fa                	mov    %edi,%edx
   1107a:	31 c0                	xor    %eax,%eax
   1107c:	c1 e2 0c             	shl    $0xc,%edx
   1107f:	90                   	nop
   11080:	c7 84 82 00 10 02 00 	movl   $0x0,0x21000(%edx,%eax,4)
   11087:	00 00 00 00 
   1108b:	83 c0 01             	add    $0x1,%eax
   1108e:	3d 00 04 00 00       	cmp    $0x400,%eax
   11093:	75 eb                	jne    11080 <init_table_pages+0x30>
   11095:	89 fe                	mov    %edi,%esi
   11097:	ba 01 00 00 00       	mov    $0x1,%edx
   1109c:	c1 e6 0a             	shl    $0xa,%esi
   1109f:	90                   	nop
   110a0:	8d 0c 16             	lea    (%esi,%edx,1),%ecx
   110a3:	89 d3                	mov    %edx,%ebx
   110a5:	8b 04 8d 00 10 02 00 	mov    0x21000(,%ecx,4),%eax
   110ac:	c1 e3 0c             	shl    $0xc,%ebx
   110af:	83 c2 01             	add    $0x1,%edx
   110b2:	25 ff 0f 00 00       	and    $0xfff,%eax
   110b7:	09 d8                	or     %ebx,%eax
   110b9:	89 04 8d 00 10 02 00 	mov    %eax,0x21000(,%ecx,4)
   110c0:	83 c8 03             	or     $0x3,%eax
   110c3:	81 fa 00 01 00 00    	cmp    $0x100,%edx
   110c9:	88 04 8d 00 10 02 00 	mov    %al,0x21000(,%ecx,4)
   110d0:	75 ce                	jne    110a0 <init_table_pages+0x50>
   110d2:	8b 45 ec             	mov    -0x14(%ebp),%eax
   110d5:	83 c7 01             	add    $0x1,%edi
   110d8:	01 f0                	add    %esi,%eax
   110da:	03 75 f0             	add    -0x10(%ebp),%esi
   110dd:	80 24 85 00 10 02 00 	andb   $0xfe,0x21000(,%eax,4)
   110e4:	fe 
   110e5:	80 24 b5 00 10 02 00 	andb   $0xfe,0x21000(,%esi,4)
   110ec:	fe 
   110ed:	83 ff 0a             	cmp    $0xa,%edi
   110f0:	75 86                	jne    11078 <init_table_pages+0x28>
   110f2:	83 c4 08             	add    $0x8,%esp
   110f5:	5b                   	pop    %ebx
   110f6:	5e                   	pop    %esi
   110f7:	5f                   	pop    %edi
   110f8:	5d                   	pop    %ebp
   110f9:	c3                   	ret    
   110fa:	8d b6 00 00 00 00    	lea    0x0(%esi),%esi

00011100 <set_user_pages>:
   11100:	55                   	push   %ebp
   11101:	89 e5                	mov    %esp,%ebp
   11103:	53                   	push   %ebx
   11104:	31 db                	xor    %ebx,%ebx
   11106:	83 ec 14             	sub    $0x14,%esp
   11109:	8b 45 08             	mov    0x8(%ebp),%eax
   1110c:	89 04 24             	mov    %eax,(%esp)
   1110f:	e8 bc f4 ff ff       	call   105d0 <get_PT>
   11114:	8d 88 00 04 00 00    	lea    0x400(%eax),%ecx
   1111a:	8d b6 00 00 00 00    	lea    0x0(%esi),%esi
   11120:	ba 00 01 00 00       	mov    $0x100,%edx
   11125:	eb 10                	jmp    11137 <set_user_pages+0x37>
   11127:	90                   	nop
   11128:	83 c2 02             	add    $0x2,%edx
   1112b:	81 fa 00 04 00 00    	cmp    $0x400,%edx
   11131:	0f 84 88 00 00 00    	je     111bf <set_user_pages+0xbf>
   11137:	80 ba a0 45 01 00 00 	cmpb   $0x0,0x145a0(%edx)
   1113e:	75 e8                	jne    11128 <set_user_pages+0x28>
   11140:	c6 82 a0 45 01 00 01 	movb   $0x1,0x145a0(%edx)
   11147:	81 e2 ff ff 0f 00    	and    $0xfffff,%edx
   1114d:	c1 e2 0c             	shl    $0xc,%edx
   11150:	83 c3 01             	add    $0x1,%ebx
   11153:	89 11                	mov    %edx,(%ecx)
   11155:	83 c1 04             	add    $0x4,%ecx
   11158:	c6 41 fc 05          	movb   $0x5,-0x4(%ecx)
   1115c:	83 fb 08             	cmp    $0x8,%ebx
   1115f:	75 bf                	jne    11120 <set_user_pages+0x20>
   11161:	8d 90 20 04 00 00    	lea    0x420(%eax),%edx
   11167:	31 c9                	xor    %ecx,%ecx
   11169:	8d b4 26 00 00 00 00 	lea    0x0(%esi,%eiz,1),%esi
   11170:	b8 00 01 00 00       	mov    $0x100,%eax
   11175:	eb 0b                	jmp    11182 <set_user_pages+0x82>
   11177:	90                   	nop
   11178:	83 c0 02             	add    $0x2,%eax
   1117b:	3d 00 04 00 00       	cmp    $0x400,%eax
   11180:	74 36                	je     111b8 <set_user_pages+0xb8>
   11182:	80 b8 a0 45 01 00 00 	cmpb   $0x0,0x145a0(%eax)
   11189:	75 ed                	jne    11178 <set_user_pages+0x78>
   1118b:	c6 80 a0 45 01 00 01 	movb   $0x1,0x145a0(%eax)
   11192:	25 ff ff 0f 00       	and    $0xfffff,%eax
   11197:	c1 e0 0c             	shl    $0xc,%eax
   1119a:	83 c1 01             	add    $0x1,%ecx
   1119d:	89 02                	mov    %eax,(%edx)
   1119f:	83 c2 04             	add    $0x4,%edx
   111a2:	c6 42 fc 07          	movb   $0x7,-0x4(%edx)
   111a6:	83 f9 14             	cmp    $0x14,%ecx
   111a9:	75 c5                	jne    11170 <set_user_pages+0x70>
   111ab:	83 c4 14             	add    $0x14,%esp
   111ae:	5b                   	pop    %ebx
   111af:	5d                   	pop    %ebp
   111b0:	c3                   	ret    
   111b1:	8d b4 26 00 00 00 00 	lea    0x0(%esi,%eiz,1),%esi
   111b8:	b8 ff ff 0f 00       	mov    $0xfffff,%eax
   111bd:	eb d8                	jmp    11197 <set_user_pages+0x97>
   111bf:	ba ff ff 0f 00       	mov    $0xfffff,%edx
   111c4:	eb 87                	jmp    1114d <set_user_pages+0x4d>
   111c6:	8d 76 00             	lea    0x0(%esi),%esi
   111c9:	8d bc 27 00 00 00 00 	lea    0x0(%edi,%eiz,1),%edi

000111d0 <set_cr3>:
   111d0:	55                   	push   %ebp
   111d1:	89 e5                	mov    %esp,%ebp
   111d3:	8b 45 08             	mov    0x8(%ebp),%eax
   111d6:	0f 22 d8             	mov    %eax,%cr3
   111d9:	5d                   	pop    %ebp
   111da:	c3                   	ret    
   111db:	90                   	nop
   111dc:	8d 74 26 00          	lea    0x0(%esi,%eiz,1),%esi

000111e0 <set_pe_flag>:
   111e0:	55                   	push   %ebp
   111e1:	0f 20 c0             	mov    %cr0,%eax
   111e4:	89 e5                	mov    %esp,%ebp
   111e6:	0d 00 00 00 80       	or     $0x80000000,%eax
   111eb:	0f 22 c0             	mov    %eax,%cr0
   111ee:	5d                   	pop    %ebp
   111ef:	c3                   	ret    

000111f0 <init_mm>:
   111f0:	55                   	push   %ebp
   111f1:	89 e5                	mov    %esp,%ebp
   111f3:	53                   	push   %ebx
   111f4:	83 ec 14             	sub    $0x14,%esp
   111f7:	e8 54 fe ff ff       	call   11050 <init_table_pages>
   111fc:	31 c0                	xor    %eax,%eax
   111fe:	66 90                	xchg   %ax,%ax
   11200:	c6 80 a0 45 01 00 00 	movb   $0x0,0x145a0(%eax)
   11207:	83 c0 01             	add    $0x1,%eax
   1120a:	3d 00 04 00 00       	cmp    $0x400,%eax
   1120f:	75 ef                	jne    11200 <init_mm+0x10>
   11211:	66 31 c0             	xor    %ax,%ax
   11214:	8d 74 26 00          	lea    0x0(%esi,%eiz,1),%esi
   11218:	c6 80 a0 45 01 00 01 	movb   $0x1,0x145a0(%eax)
   1121f:	83 c0 01             	add    $0x1,%eax
   11222:	3d 00 01 00 00       	cmp    $0x100,%eax
   11227:	75 ef                	jne    11218 <init_mm+0x28>
   11229:	ba 00 10 02 00       	mov    $0x21000,%edx
   1122e:	66 31 c0             	xor    %ax,%ax
   11231:	8d b4 26 00 00 00 00 	lea    0x0(%esi,%eiz,1),%esi
   11238:	89 c1                	mov    %eax,%ecx
   1123a:	89 d3                	mov    %edx,%ebx
   1123c:	83 c0 01             	add    $0x1,%eax
   1123f:	81 e3 00 f0 ff ff    	and    $0xfffff000,%ebx
   11245:	c1 e1 0c             	shl    $0xc,%ecx
   11248:	81 c2 00 10 00 00    	add    $0x1000,%edx
   1124e:	83 f8 0a             	cmp    $0xa,%eax
   11251:	89 99 00 b0 02 00    	mov    %ebx,0x2b000(%ecx)
   11257:	c6 81 00 b0 02 00 07 	movb   $0x7,0x2b000(%ecx)
   1125e:	75 d8                	jne    11238 <init_mm+0x48>
   11260:	a1 44 3c 01 00       	mov    0x13c44,%eax
   11265:	89 04 24             	mov    %eax,(%esp)
   11268:	e8 83 f3 ff ff       	call   105f0 <allocate_DIR>
   1126d:	a1 44 3c 01 00       	mov    0x13c44,%eax
   11272:	89 04 24             	mov    %eax,(%esp)
   11275:	e8 46 f3 ff ff       	call   105c0 <get_DIR>
   1127a:	0f 22 d8             	mov    %eax,%cr3
   1127d:	0f 20 c0             	mov    %cr0,%eax
   11280:	0d 00 00 00 80       	or     $0x80000000,%eax
   11285:	0f 22 c0             	mov    %eax,%cr0
   11288:	83 c4 14             	add    $0x14,%esp
   1128b:	5b                   	pop    %ebx
   1128c:	5d                   	pop    %ebp
   1128d:	c3                   	ret    
   1128e:	66 90                	xchg   %ax,%ax

00011290 <setGdt>:
   11290:	55                   	push   %ebp
   11291:	ba 20 45 01 00       	mov    $0x14520,%edx
   11296:	89 e5                	mov    %esp,%ebp
   11298:	83 ec 18             	sub    $0x18,%esp
   1129b:	a1 4c 3c 01 00       	mov    0x13c4c,%eax
   112a0:	89 d1                	mov    %edx,%ecx
   112a2:	c1 e9 10             	shr    $0x10,%ecx
   112a5:	66 89 50 32          	mov    %dx,0x32(%eax)
   112a9:	c1 ea 18             	shr    $0x18,%edx
   112ac:	88 48 34             	mov    %cl,0x34(%eax)
   112af:	88 50 37             	mov    %dl,0x37(%eax)
   112b2:	a3 02 45 01 00       	mov    %eax,0x14502
   112b7:	b8 00 08 00 00       	mov    $0x800,%eax
   112bc:	c7 04 24 00 45 01 00 	movl   $0x14500,(%esp)
   112c3:	66 a3 00 45 01 00    	mov    %ax,0x14500
   112c9:	e8 f2 04 00 00       	call   117c0 <set_gdt_reg>
   112ce:	c9                   	leave  
   112cf:	c3                   	ret    

000112d0 <setTSS>:
   112d0:	55                   	push   %ebp
   112d1:	31 c0                	xor    %eax,%eax
   112d3:	89 e5                	mov    %esp,%ebp
   112d5:	83 ec 18             	sub    $0x18,%esp
   112d8:	66 a3 20 45 01 00    	mov    %ax,0x14520
   112de:	a1 44 3c 01 00       	mov    0x13c44,%eax
   112e3:	ba 18 00 00 00       	mov    $0x18,%edx
   112e8:	31 c9                	xor    %ecx,%ecx
   112ea:	66 89 15 28 45 01 00 	mov    %dx,0x14528
   112f1:	31 d2                	xor    %edx,%edx
   112f3:	66 89 0d 30 45 01 00 	mov    %cx,0x14530
   112fa:	b9 30 00 00 00       	mov    $0x30,%ecx
   112ff:	05 00 20 00 00       	add    $0x2000,%eax
   11304:	a3 24 45 01 00       	mov    %eax,0x14524
   11309:	31 c0                	xor    %eax,%eax
   1130b:	66 a3 38 45 01 00    	mov    %ax,0x14538
   11311:	b8 2b 00 00 00       	mov    $0x2b,%eax
   11316:	66 a3 68 45 01 00    	mov    %ax,0x14568
   1131c:	b8 23 00 00 00       	mov    $0x23,%eax
   11321:	66 a3 6c 45 01 00    	mov    %ax,0x1456c
   11327:	b8 2b 00 00 00       	mov    $0x2b,%eax
   1132c:	66 a3 70 45 01 00    	mov    %ax,0x14570
   11332:	b8 2b 00 00 00       	mov    $0x2b,%eax
   11337:	66 a3 74 45 01 00    	mov    %ax,0x14574
   1133d:	31 c0                	xor    %eax,%eax
   1133f:	66 a3 78 45 01 00    	mov    %ax,0x14578
   11345:	31 c0                	xor    %eax,%eax
   11347:	66 a3 84 45 01 00    	mov    %ax,0x14584
   1134d:	31 c0                	xor    %eax,%eax
   1134f:	c7 04 24 30 00 00 00 	movl   $0x30,(%esp)
   11356:	c7 05 2c 45 01 00 00 	movl   $0x0,0x1452c
   1135d:	00 00 00 
   11360:	c7 05 34 45 01 00 00 	movl   $0x0,0x14534
   11367:	00 00 00 
   1136a:	c7 05 3c 45 01 00 00 	movl   $0x0,0x1453c
   11371:	00 00 00 
   11374:	c7 05 40 45 01 00 00 	movl   $0x0,0x14540
   1137b:	00 00 00 
   1137e:	c7 05 44 45 01 00 00 	movl   $0x200,0x14544
   11385:	02 00 00 
   11388:	c7 05 48 45 01 00 00 	movl   $0x0,0x14548
   1138f:	00 00 00 
   11392:	c7 05 4c 45 01 00 00 	movl   $0x0,0x1454c
   11399:	00 00 00 
   1139c:	c7 05 50 45 01 00 00 	movl   $0x0,0x14550
   113a3:	00 00 00 
   113a6:	c7 05 54 45 01 00 00 	movl   $0x0,0x14554
   113ad:	00 00 00 
   113b0:	c7 05 58 45 01 00 f0 	movl   $0x11bff0,0x14558
   113b7:	bf 11 00 
   113ba:	c7 05 5c 45 01 00 f0 	movl   $0x11bff0,0x1455c
   113c1:	bf 11 00 
   113c4:	c7 05 60 45 01 00 00 	movl   $0x0,0x14560
   113cb:	00 00 00 
   113ce:	c7 05 64 45 01 00 00 	movl   $0x0,0x14564
   113d5:	00 00 00 
   113d8:	66 89 15 7c 45 01 00 	mov    %dx,0x1457c
   113df:	66 89 0d 80 45 01 00 	mov    %cx,0x14580
   113e6:	66 a3 86 45 01 00    	mov    %ax,0x14586
   113ec:	e8 ef 03 00 00       	call   117e0 <set_task_reg>
   113f1:	c9                   	leave  
   113f2:	c3                   	ret    
   113f3:	8d b6 00 00 00 00    	lea    0x0(%esi),%esi
   113f9:	8d bc 27 00 00 00 00 	lea    0x0(%edi,%eiz,1),%edi

00011400 <init_frames>:
   11400:	55                   	push   %ebp
   11401:	31 c0                	xor    %eax,%eax
   11403:	89 e5                	mov    %esp,%ebp
   11405:	8d 76 00             	lea    0x0(%esi),%esi
   11408:	c6 80 a0 45 01 00 00 	movb   $0x0,0x145a0(%eax)
   1140f:	83 c0 01             	add    $0x1,%eax
   11412:	3d 00 04 00 00       	cmp    $0x400,%eax
   11417:	75 ef                	jne    11408 <init_frames+0x8>
   11419:	66 31 c0             	xor    %ax,%ax
   1141c:	8d 74 26 00          	lea    0x0(%esi,%eiz,1),%esi
   11420:	c6 80 a0 45 01 00 01 	movb   $0x1,0x145a0(%eax)
   11427:	83 c0 01             	add    $0x1,%eax
   1142a:	3d 00 01 00 00       	cmp    $0x100,%eax
   1142f:	75 ef                	jne    11420 <init_frames+0x20>
   11431:	66 31 c0             	xor    %ax,%ax
   11434:	5d                   	pop    %ebp
   11435:	c3                   	ret    
   11436:	8d 76 00             	lea    0x0(%esi),%esi
   11439:	8d bc 27 00 00 00 00 	lea    0x0(%edi,%eiz,1),%edi

00011440 <alloc_frame>:
   11440:	55                   	push   %ebp
   11441:	b8 00 01 00 00       	mov    $0x100,%eax
   11446:	89 e5                	mov    %esp,%ebp
   11448:	eb 10                	jmp    1145a <alloc_frame+0x1a>
   1144a:	8d b6 00 00 00 00    	lea    0x0(%esi),%esi
   11450:	83 c0 02             	add    $0x2,%eax
   11453:	3d 00 04 00 00       	cmp    $0x400,%eax
   11458:	74 16                	je     11470 <alloc_frame+0x30>
   1145a:	80 b8 a0 45 01 00 00 	cmpb   $0x0,0x145a0(%eax)
   11461:	75 ed                	jne    11450 <alloc_frame+0x10>
   11463:	c6 80 a0 45 01 00 01 	movb   $0x1,0x145a0(%eax)
   1146a:	5d                   	pop    %ebp
   1146b:	c3                   	ret    
   1146c:	8d 74 26 00          	lea    0x0(%esi,%eiz,1),%esi
   11470:	b8 ff ff ff ff       	mov    $0xffffffff,%eax
   11475:	5d                   	pop    %ebp
   11476:	c3                   	ret    
   11477:	89 f6                	mov    %esi,%esi
   11479:	8d bc 27 00 00 00 00 	lea    0x0(%edi,%eiz,1),%edi

00011480 <free_user_pages>:
   11480:	55                   	push   %ebp
   11481:	89 e5                	mov    %esp,%ebp
   11483:	53                   	push   %ebx
   11484:	83 ec 14             	sub    $0x14,%esp
   11487:	8b 45 08             	mov    0x8(%ebp),%eax
   1148a:	89 04 24             	mov    %eax,(%esp)
   1148d:	e8 3e f1 ff ff       	call   105d0 <get_PT>
   11492:	31 c9                	xor    %ecx,%ecx
   11494:	05 20 04 00 00       	add    $0x420,%eax
   11499:	8d b4 26 00 00 00 00 	lea    0x0(%esi,%eiz,1),%esi
   114a0:	8b 10                	mov    (%eax),%edx
   114a2:	c1 ea 0c             	shr    $0xc,%edx
   114a5:	8d 9a ff fe ff ff    	lea    -0x101(%edx),%ebx
   114ab:	81 fb fe 02 00 00    	cmp    $0x2fe,%ebx
   114b1:	77 07                	ja     114ba <free_user_pages+0x3a>
   114b3:	c6 82 a0 45 01 00 00 	movb   $0x0,0x145a0(%edx)
   114ba:	83 c1 01             	add    $0x1,%ecx
   114bd:	83 c0 04             	add    $0x4,%eax
   114c0:	c7 40 fc 00 00 00 00 	movl   $0x0,-0x4(%eax)
   114c7:	83 f9 14             	cmp    $0x14,%ecx
   114ca:	75 d4                	jne    114a0 <free_user_pages+0x20>
   114cc:	83 c4 14             	add    $0x14,%esp
   114cf:	5b                   	pop    %ebx
   114d0:	5d                   	pop    %ebp
   114d1:	c3                   	ret    
   114d2:	8d b4 26 00 00 00 00 	lea    0x0(%esi,%eiz,1),%esi
   114d9:	8d bc 27 00 00 00 00 	lea    0x0(%edi,%eiz,1),%edi

000114e0 <free_frame>:
   114e0:	55                   	push   %ebp
   114e1:	89 e5                	mov    %esp,%ebp
   114e3:	8b 45 08             	mov    0x8(%ebp),%eax
   114e6:	8d 90 ff fe ff ff    	lea    -0x101(%eax),%edx
   114ec:	81 fa fe 02 00 00    	cmp    $0x2fe,%edx
   114f2:	77 07                	ja     114fb <free_frame+0x1b>
   114f4:	c6 80 a0 45 01 00 00 	movb   $0x0,0x145a0(%eax)
   114fb:	5d                   	pop    %ebp
   114fc:	c3                   	ret    
   114fd:	8d 76 00             	lea    0x0(%esi),%esi

00011500 <set_ss_pag>:
   11500:	55                   	push   %ebp
   11501:	89 e5                	mov    %esp,%ebp
   11503:	8b 55 10             	mov    0x10(%ebp),%edx
   11506:	8b 45 0c             	mov    0xc(%ebp),%eax
   11509:	8b 4d 08             	mov    0x8(%ebp),%ecx
   1150c:	c1 e2 0c             	shl    $0xc,%edx
   1150f:	8d 04 81             	lea    (%ecx,%eax,4),%eax
   11512:	89 10                	mov    %edx,(%eax)
   11514:	c6 00 07             	movb   $0x7,(%eax)
   11517:	5d                   	pop    %ebp
   11518:	c3                   	ret    
   11519:	8d b4 26 00 00 00 00 	lea    0x0(%esi,%eiz,1),%esi

00011520 <del_ss_pag>:
   11520:	55                   	push   %ebp
   11521:	89 e5                	mov    %esp,%ebp
   11523:	8b 55 0c             	mov    0xc(%ebp),%edx
   11526:	8b 45 08             	mov    0x8(%ebp),%eax
   11529:	c7 04 90 00 00 00 00 	movl   $0x0,(%eax,%edx,4)
   11530:	5d                   	pop    %ebp
   11531:	c3                   	ret    
   11532:	8d b4 26 00 00 00 00 	lea    0x0(%esi,%eiz,1),%esi
   11539:	8d bc 27 00 00 00 00 	lea    0x0(%edi,%eiz,1),%edi

00011540 <get_frame>:
   11540:	55                   	push   %ebp
   11541:	89 e5                	mov    %esp,%ebp
   11543:	8b 55 0c             	mov    0xc(%ebp),%edx
   11546:	8b 45 08             	mov    0x8(%ebp),%eax
   11549:	5d                   	pop    %ebp
   1154a:	8b 04 90             	mov    (%eax,%edx,4),%eax
   1154d:	c1 e8 0c             	shr    $0xc,%eax
   11550:	c3                   	ret    
   11551:	66 90                	xchg   %ax,%ax
   11553:	66 90                	xchg   %ax,%ax
   11555:	66 90                	xchg   %ax,%ax
   11557:	66 90                	xchg   %ax,%ax
   11559:	66 90                	xchg   %ax,%ax
   1155b:	66 90                	xchg   %ax,%ax
   1155d:	66 90                	xchg   %ax,%ax
   1155f:	90                   	nop

00011560 <sys_write_console>:
   11560:	55                   	push   %ebp
   11561:	89 e5                	mov    %esp,%ebp
   11563:	57                   	push   %edi
   11564:	56                   	push   %esi
   11565:	53                   	push   %ebx
   11566:	83 ec 1c             	sub    $0x1c,%esp
   11569:	8b 7d 0c             	mov    0xc(%ebp),%edi
   1156c:	8b 5d 08             	mov    0x8(%ebp),%ebx
   1156f:	85 ff                	test   %edi,%edi
   11571:	8d 34 3b             	lea    (%ebx,%edi,1),%esi
   11574:	7e 14                	jle    1158a <sys_write_console+0x2a>
   11576:	66 90                	xchg   %ax,%ax
   11578:	0f be 03             	movsbl (%ebx),%eax
   1157b:	83 c3 01             	add    $0x1,%ebx
   1157e:	89 04 24             	mov    %eax,(%esp)
   11581:	e8 da ee ff ff       	call   10460 <printc>
   11586:	39 f3                	cmp    %esi,%ebx
   11588:	75 ee                	jne    11578 <sys_write_console+0x18>
   1158a:	83 c4 1c             	add    $0x1c,%esp
   1158d:	89 f8                	mov    %edi,%eax
   1158f:	5b                   	pop    %ebx
   11590:	5e                   	pop    %esi
   11591:	5f                   	pop    %edi
   11592:	5d                   	pop    %ebp
   11593:	c3                   	ret    
   11594:	66 90                	xchg   %ax,%ax
   11596:	66 90                	xchg   %ax,%ax
   11598:	66 90                	xchg   %ax,%ax
   1159a:	66 90                	xchg   %ax,%ax
   1159c:	66 90                	xchg   %ax,%ax
   1159e:	66 90                	xchg   %ax,%ax

000115a0 <copy_data>:
   115a0:	55                   	push   %ebp
   115a1:	89 e5                	mov    %esp,%ebp
   115a3:	57                   	push   %edi
   115a4:	8b 45 08             	mov    0x8(%ebp),%eax
   115a7:	56                   	push   %esi
   115a8:	8b 75 10             	mov    0x10(%ebp),%esi
   115ab:	53                   	push   %ebx
   115ac:	8b 4d 0c             	mov    0xc(%ebp),%ecx
   115af:	83 fe 04             	cmp    $0x4,%esi
   115b2:	7e 2e                	jle    115e2 <copy_data+0x42>
   115b4:	8d 7e fb             	lea    -0x5(%esi),%edi
   115b7:	31 d2                	xor    %edx,%edx
   115b9:	c1 ef 02             	shr    $0x2,%edi
   115bc:	8d 1c bd 04 00 00 00 	lea    0x4(,%edi,4),%ebx
   115c3:	90                   	nop
   115c4:	8d 74 26 00          	lea    0x0(%esi,%eiz,1),%esi
   115c8:	8b 34 10             	mov    (%eax,%edx,1),%esi
   115cb:	89 34 11             	mov    %esi,(%ecx,%edx,1)
   115ce:	83 c2 04             	add    $0x4,%edx
   115d1:	39 da                	cmp    %ebx,%edx
   115d3:	75 f3                	jne    115c8 <copy_data+0x28>
   115d5:	8b 75 10             	mov    0x10(%ebp),%esi
   115d8:	f7 df                	neg    %edi
   115da:	01 d1                	add    %edx,%ecx
   115dc:	01 d0                	add    %edx,%eax
   115de:	8d 74 be fc          	lea    -0x4(%esi,%edi,4),%esi
   115e2:	85 f6                	test   %esi,%esi
   115e4:	8d 1c 30             	lea    (%eax,%esi,1),%ebx
   115e7:	7e 18                	jle    11601 <copy_data+0x61>
   115e9:	8d b4 26 00 00 00 00 	lea    0x0(%esi,%eiz,1),%esi
   115f0:	83 c0 01             	add    $0x1,%eax
   115f3:	0f b6 50 ff          	movzbl -0x1(%eax),%edx
   115f7:	83 c1 01             	add    $0x1,%ecx
   115fa:	39 d8                	cmp    %ebx,%eax
   115fc:	88 51 ff             	mov    %dl,-0x1(%ecx)
   115ff:	75 ef                	jne    115f0 <copy_data+0x50>
   11601:	5b                   	pop    %ebx
   11602:	5e                   	pop    %esi
   11603:	5f                   	pop    %edi
   11604:	5d                   	pop    %ebp
   11605:	c3                   	ret    
   11606:	8d 76 00             	lea    0x0(%esi),%esi
   11609:	8d bc 27 00 00 00 00 	lea    0x0(%edi,%eiz,1),%edi

00011610 <copy_from_user>:
   11610:	55                   	push   %ebp
   11611:	89 e5                	mov    %esp,%ebp
   11613:	57                   	push   %edi
   11614:	8b 45 08             	mov    0x8(%ebp),%eax
   11617:	56                   	push   %esi
   11618:	8b 75 10             	mov    0x10(%ebp),%esi
   1161b:	53                   	push   %ebx
   1161c:	8b 4d 0c             	mov    0xc(%ebp),%ecx
   1161f:	83 fe 04             	cmp    $0x4,%esi
   11622:	7e 2e                	jle    11652 <copy_from_user+0x42>
   11624:	8d 7e fb             	lea    -0x5(%esi),%edi
   11627:	31 d2                	xor    %edx,%edx
   11629:	c1 ef 02             	shr    $0x2,%edi
   1162c:	8d 1c bd 04 00 00 00 	lea    0x4(,%edi,4),%ebx
   11633:	90                   	nop
   11634:	8d 74 26 00          	lea    0x0(%esi,%eiz,1),%esi
   11638:	8b 34 10             	mov    (%eax,%edx,1),%esi
   1163b:	89 34 11             	mov    %esi,(%ecx,%edx,1)
   1163e:	83 c2 04             	add    $0x4,%edx
   11641:	39 da                	cmp    %ebx,%edx
   11643:	75 f3                	jne    11638 <copy_from_user+0x28>
   11645:	8b 75 10             	mov    0x10(%ebp),%esi
   11648:	f7 df                	neg    %edi
   1164a:	01 d1                	add    %edx,%ecx
   1164c:	01 d0                	add    %edx,%eax
   1164e:	8d 74 be fc          	lea    -0x4(%esi,%edi,4),%esi
   11652:	85 f6                	test   %esi,%esi
   11654:	8d 1c 30             	lea    (%eax,%esi,1),%ebx
   11657:	7e 18                	jle    11671 <copy_from_user+0x61>
   11659:	8d b4 26 00 00 00 00 	lea    0x0(%esi,%eiz,1),%esi
   11660:	83 c0 01             	add    $0x1,%eax
   11663:	0f b6 50 ff          	movzbl -0x1(%eax),%edx
   11667:	83 c1 01             	add    $0x1,%ecx
   1166a:	39 d8                	cmp    %ebx,%eax
   1166c:	88 51 ff             	mov    %dl,-0x1(%ecx)
   1166f:	75 ef                	jne    11660 <copy_from_user+0x50>
   11671:	5b                   	pop    %ebx
   11672:	31 c0                	xor    %eax,%eax
   11674:	5e                   	pop    %esi
   11675:	5f                   	pop    %edi
   11676:	5d                   	pop    %ebp
   11677:	c3                   	ret    
   11678:	90                   	nop
   11679:	8d b4 26 00 00 00 00 	lea    0x0(%esi,%eiz,1),%esi

00011680 <copy_to_user>:
   11680:	55                   	push   %ebp
   11681:	89 e5                	mov    %esp,%ebp
   11683:	57                   	push   %edi
   11684:	8b 45 08             	mov    0x8(%ebp),%eax
   11687:	56                   	push   %esi
   11688:	8b 75 10             	mov    0x10(%ebp),%esi
   1168b:	53                   	push   %ebx
   1168c:	8b 4d 0c             	mov    0xc(%ebp),%ecx
   1168f:	83 fe 04             	cmp    $0x4,%esi
   11692:	7e 2e                	jle    116c2 <copy_to_user+0x42>
   11694:	8d 7e fb             	lea    -0x5(%esi),%edi
   11697:	31 d2                	xor    %edx,%edx
   11699:	c1 ef 02             	shr    $0x2,%edi
   1169c:	8d 1c bd 04 00 00 00 	lea    0x4(,%edi,4),%ebx
   116a3:	90                   	nop
   116a4:	8d 74 26 00          	lea    0x0(%esi,%eiz,1),%esi
   116a8:	8b 34 10             	mov    (%eax,%edx,1),%esi
   116ab:	89 34 11             	mov    %esi,(%ecx,%edx,1)
   116ae:	83 c2 04             	add    $0x4,%edx
   116b1:	39 da                	cmp    %ebx,%edx
   116b3:	75 f3                	jne    116a8 <copy_to_user+0x28>
   116b5:	8b 75 10             	mov    0x10(%ebp),%esi
   116b8:	f7 df                	neg    %edi
   116ba:	01 d1                	add    %edx,%ecx
   116bc:	01 d0                	add    %edx,%eax
   116be:	8d 74 be fc          	lea    -0x4(%esi,%edi,4),%esi
   116c2:	85 f6                	test   %esi,%esi
   116c4:	8d 1c 30             	lea    (%eax,%esi,1),%ebx
   116c7:	7e 18                	jle    116e1 <copy_to_user+0x61>
   116c9:	8d b4 26 00 00 00 00 	lea    0x0(%esi,%eiz,1),%esi
   116d0:	83 c0 01             	add    $0x1,%eax
   116d3:	0f b6 50 ff          	movzbl -0x1(%eax),%edx
   116d7:	83 c1 01             	add    $0x1,%ecx
   116da:	39 d8                	cmp    %ebx,%eax
   116dc:	88 51 ff             	mov    %dl,-0x1(%ecx)
   116df:	75 ef                	jne    116d0 <copy_to_user+0x50>
   116e1:	5b                   	pop    %ebx
   116e2:	31 c0                	xor    %eax,%eax
   116e4:	5e                   	pop    %esi
   116e5:	5f                   	pop    %edi
   116e6:	5d                   	pop    %ebp
   116e7:	c3                   	ret    
   116e8:	90                   	nop
   116e9:	8d b4 26 00 00 00 00 	lea    0x0(%esi,%eiz,1),%esi

000116f0 <access_ok>:
   116f0:	55                   	push   %ebp
   116f1:	89 e5                	mov    %esp,%ebp
   116f3:	8b 45 0c             	mov    0xc(%ebp),%eax
   116f6:	89 c2                	mov    %eax,%edx
   116f8:	03 45 10             	add    0x10(%ebp),%eax
   116fb:	c1 ea 0c             	shr    $0xc,%edx
   116fe:	c1 e8 0c             	shr    $0xc,%eax
   11701:	83 7d 08 01          	cmpl   $0x1,0x8(%ebp)
   11705:	74 19                	je     11720 <access_ok+0x30>
   11707:	3d 1c 01 00 00       	cmp    $0x11c,%eax
   1170c:	0f 96 c1             	setbe  %cl
   1170f:	31 c0                	xor    %eax,%eax
   11711:	81 fa ff 00 00 00    	cmp    $0xff,%edx
   11717:	0f 97 c0             	seta   %al
   1171a:	21 c8                	and    %ecx,%eax
   1171c:	5d                   	pop    %ebp
   1171d:	c3                   	ret    
   1171e:	66 90                	xchg   %ax,%ax
   11720:	3d 1c 01 00 00       	cmp    $0x11c,%eax
   11725:	0f 96 c1             	setbe  %cl
   11728:	77 e5                	ja     1170f <access_ok+0x1f>
   1172a:	81 fa 07 01 00 00    	cmp    $0x107,%edx
   11730:	b8 01 00 00 00       	mov    $0x1,%eax
   11735:	76 d8                	jbe    1170f <access_ok+0x1f>
   11737:	5d                   	pop    %ebp
   11738:	c3                   	ret    
   11739:	8d b4 26 00 00 00 00 	lea    0x0(%esi,%eiz,1),%esi

00011740 <get_ticks>:
   11740:	55                   	push   %ebp
   11741:	89 e5                	mov    %esp,%ebp
   11743:	57                   	push   %edi
   11744:	56                   	push   %esi
   11745:	53                   	push   %ebx
   11746:	0f 31                	rdtsc  
   11748:	89 c6                	mov    %eax,%esi
   1174a:	89 d0                	mov    %edx,%eax
   1174c:	89 c2                	mov    %eax,%edx
   1174e:	b8 00 00 00 00       	mov    $0x0,%eax
   11753:	31 ff                	xor    %edi,%edi
   11755:	01 f0                	add    %esi,%eax
   11757:	11 fa                	adc    %edi,%edx
   11759:	31 ff                	xor    %edi,%edi
   1175b:	85 d2                	test   %edx,%edx
   1175d:	89 d6                	mov    %edx,%esi
   1175f:	89 c1                	mov    %eax,%ecx
   11761:	74 1b                	je     1177e <get_ticks+0x3e>
   11763:	bf a9 d7 7a 26       	mov    $0x267ad7a9,%edi
   11768:	89 d0                	mov    %edx,%eax
   1176a:	f7 e7                	mul    %edi
   1176c:	89 d0                	mov    %edx,%eax
   1176e:	89 d7                	mov    %edx,%edi
   11770:	c1 e8 0e             	shr    $0xe,%eax
   11773:	69 c0 c8 a9 01 00    	imul   $0x1a9c8,%eax,%eax
   11779:	c1 ef 0e             	shr    $0xe,%edi
   1177c:	29 c6                	sub    %eax,%esi
   1177e:	89 f2                	mov    %esi,%edx
   11780:	bb c8 a9 01 00       	mov    $0x1a9c8,%ebx
   11785:	89 c8                	mov    %ecx,%eax
   11787:	f7 f3                	div    %ebx
   11789:	5b                   	pop    %ebx
   1178a:	89 fa                	mov    %edi,%edx
   1178c:	5e                   	pop    %esi
   1178d:	5f                   	pop    %edi
   1178e:	5d                   	pop    %ebp
   1178f:	c3                   	ret    

00011790 <get_eflags>:
   11790:	55                   	push   %ebp
   11791:	89 e5                	mov    %esp,%ebp
   11793:	9c                   	pushf  
   11794:	58                   	pop    %eax
   11795:	5d                   	pop    %ebp
   11796:	c3                   	ret    
   11797:	89 f6                	mov    %esi,%esi
   11799:	8d bc 27 00 00 00 00 	lea    0x0(%edi,%eiz,1),%edi

000117a0 <set_eflags>:
   117a0:	55                   	push   %ebp
   117a1:	89 e5                	mov    %esp,%ebp
   117a3:	6a 00                	push   $0x0
   117a5:	9d                   	popf   
   117a6:	5d                   	pop    %ebp
   117a7:	c3                   	ret    
   117a8:	90                   	nop
   117a9:	8d b4 26 00 00 00 00 	lea    0x0(%esi,%eiz,1),%esi

000117b0 <set_idt_reg>:
   117b0:	55                   	push   %ebp
   117b1:	89 e5                	mov    %esp,%ebp
   117b3:	8b 45 08             	mov    0x8(%ebp),%eax
   117b6:	0f 01 18             	lidtl  (%eax)
   117b9:	5d                   	pop    %ebp
   117ba:	c3                   	ret    
   117bb:	90                   	nop
   117bc:	8d 74 26 00          	lea    0x0(%esi,%eiz,1),%esi

000117c0 <set_gdt_reg>:
   117c0:	55                   	push   %ebp
   117c1:	89 e5                	mov    %esp,%ebp
   117c3:	8b 45 08             	mov    0x8(%ebp),%eax
   117c6:	0f 01 10             	lgdtl  (%eax)
   117c9:	5d                   	pop    %ebp
   117ca:	c3                   	ret    
   117cb:	90                   	nop
   117cc:	8d 74 26 00          	lea    0x0(%esi,%eiz,1),%esi

000117d0 <set_ldt_reg>:
   117d0:	55                   	push   %ebp
   117d1:	89 e5                	mov    %esp,%ebp
   117d3:	8b 45 08             	mov    0x8(%ebp),%eax
   117d6:	0f 00 d0             	lldt   %ax
   117d9:	5d                   	pop    %ebp
   117da:	c3                   	ret    
   117db:	90                   	nop
   117dc:	8d 74 26 00          	lea    0x0(%esi,%eiz,1),%esi

000117e0 <set_task_reg>:
   117e0:	55                   	push   %ebp
   117e1:	89 e5                	mov    %esp,%ebp
   117e3:	8b 45 08             	mov    0x8(%ebp),%eax
   117e6:	0f 00 d8             	ltr    %ax
   117e9:	5d                   	pop    %ebp
   117ea:	c3                   	ret    
   117eb:	90                   	nop
   117ec:	8d 74 26 00          	lea    0x0(%esi,%eiz,1),%esi

000117f0 <return_gate>:
   117f0:	55                   	push   %ebp
   117f1:	89 e5                	mov    %esp,%ebp
   117f3:	83 ec 0c             	sub    $0xc,%esp
   117f6:	8b 45 08             	mov    0x8(%ebp),%eax
   117f9:	66 89 45 fc          	mov    %ax,-0x4(%ebp)
   117fd:	8b 45 0c             	mov    0xc(%ebp),%eax
   11800:	66 89 45 f8          	mov    %ax,-0x8(%ebp)
   11804:	8b 45 14             	mov    0x14(%ebp),%eax
   11807:	66 89 45 f4          	mov    %ax,-0xc(%ebp)
   1180b:	a1 c0 3b 01 00       	mov    0x13bc0,%eax
   11810:	8b 10                	mov    (%eax),%edx
   11812:	8e 45 fc             	mov    -0x4(%ebp),%es
   11815:	8e 5d fc             	mov    -0x4(%ebp),%ds
   11818:	8b 45 10             	mov    0x10(%ebp),%eax
   1181b:	83 c0 0c             	add    $0xc,%eax
   1181e:	89 10                	mov    %edx,(%eax)
   11820:	ff 75 f8             	pushl  -0x8(%ebp)
   11823:	ff 75 10             	pushl  0x10(%ebp)
   11826:	ff 75 f4             	pushl  -0xc(%ebp)
   11829:	ff 75 18             	pushl  0x18(%ebp)
   1182c:	cb                   	lret   
   1182d:	c9                   	leave  
   1182e:	c3                   	ret    
   1182f:	90                   	nop

00011830 <enable_int>:
   11830:	55                   	push   %ebp
   11831:	89 e5                	mov    %esp,%ebp
   11833:	b0 fc                	mov    $0xfc,%al
   11835:	e6 21                	out    %al,$0x21
   11837:	e8 04 00 00 00       	call   11840 <delay>
   1183c:	fb                   	sti    
   1183d:	5d                   	pop    %ebp
   1183e:	c3                   	ret    
   1183f:	90                   	nop

00011840 <delay>:
   11840:	55                   	push   %ebp
   11841:	89 e5                	mov    %esp,%ebp
   11843:	eb 00                	jmp    11845 <a>

00011845 <a>:
   11845:	5d                   	pop    %ebp
   11846:	c3                   	ret    
   11847:	66 90                	xchg   %ax,%ax
   11849:	66 90                	xchg   %ax,%ax
   1184b:	66 90                	xchg   %ax,%ax
   1184d:	66 90                	xchg   %ax,%ax
   1184f:	90                   	nop

00011850 <INIT_LIST_HEAD>:
   11850:	55                   	push   %ebp
   11851:	89 e5                	mov    %esp,%ebp
   11853:	8b 45 08             	mov    0x8(%ebp),%eax
   11856:	89 00                	mov    %eax,(%eax)
   11858:	89 40 04             	mov    %eax,0x4(%eax)
   1185b:	5d                   	pop    %ebp
   1185c:	c3                   	ret    
   1185d:	8d 76 00             	lea    0x0(%esi),%esi

00011860 <list_add>:
   11860:	55                   	push   %ebp
   11861:	89 e5                	mov    %esp,%ebp
   11863:	8b 55 0c             	mov    0xc(%ebp),%edx
   11866:	8b 45 08             	mov    0x8(%ebp),%eax
   11869:	8b 0a                	mov    (%edx),%ecx
   1186b:	89 41 04             	mov    %eax,0x4(%ecx)
   1186e:	89 08                	mov    %ecx,(%eax)
   11870:	89 50 04             	mov    %edx,0x4(%eax)
   11873:	89 02                	mov    %eax,(%edx)
   11875:	5d                   	pop    %ebp
   11876:	c3                   	ret    
   11877:	89 f6                	mov    %esi,%esi
   11879:	8d bc 27 00 00 00 00 	lea    0x0(%edi,%eiz,1),%edi

00011880 <list_add_tail>:
   11880:	55                   	push   %ebp
   11881:	89 e5                	mov    %esp,%ebp
   11883:	8b 55 0c             	mov    0xc(%ebp),%edx
   11886:	8b 45 08             	mov    0x8(%ebp),%eax
   11889:	8b 4a 04             	mov    0x4(%edx),%ecx
   1188c:	89 42 04             	mov    %eax,0x4(%edx)
   1188f:	89 10                	mov    %edx,(%eax)
   11891:	89 48 04             	mov    %ecx,0x4(%eax)
   11894:	89 01                	mov    %eax,(%ecx)
   11896:	5d                   	pop    %ebp
   11897:	c3                   	ret    
   11898:	90                   	nop
   11899:	8d b4 26 00 00 00 00 	lea    0x0(%esi,%eiz,1),%esi

000118a0 <list_del>:
   118a0:	55                   	push   %ebp
   118a1:	89 e5                	mov    %esp,%ebp
   118a3:	8b 45 08             	mov    0x8(%ebp),%eax
   118a6:	8b 08                	mov    (%eax),%ecx
   118a8:	8b 50 04             	mov    0x4(%eax),%edx
   118ab:	89 51 04             	mov    %edx,0x4(%ecx)
   118ae:	89 0a                	mov    %ecx,(%edx)
   118b0:	c7 00 00 00 00 00    	movl   $0x0,(%eax)
   118b6:	c7 40 04 00 00 00 00 	movl   $0x0,0x4(%eax)
   118bd:	5d                   	pop    %ebp
   118be:	c3                   	ret    
   118bf:	90                   	nop

000118c0 <list_is_last>:
   118c0:	55                   	push   %ebp
   118c1:	89 e5                	mov    %esp,%ebp
   118c3:	8b 45 08             	mov    0x8(%ebp),%eax
   118c6:	8b 55 0c             	mov    0xc(%ebp),%edx
   118c9:	5d                   	pop    %ebp
   118ca:	39 10                	cmp    %edx,(%eax)
   118cc:	0f 94 c0             	sete   %al
   118cf:	0f b6 c0             	movzbl %al,%eax
   118d2:	c3                   	ret    
   118d3:	8d b6 00 00 00 00    	lea    0x0(%esi),%esi
   118d9:	8d bc 27 00 00 00 00 	lea    0x0(%edi,%eiz,1),%edi

000118e0 <list_empty>:
   118e0:	55                   	push   %ebp
   118e1:	89 e5                	mov    %esp,%ebp
   118e3:	8b 45 08             	mov    0x8(%ebp),%eax
   118e6:	5d                   	pop    %ebp
   118e7:	39 00                	cmp    %eax,(%eax)
   118e9:	0f 94 c0             	sete   %al
   118ec:	0f b6 c0             	movzbl %al,%eax
   118ef:	c3                   	ret    

000118f0 <update_stats>:
   118f0:	55                   	push   %ebp
   118f1:	89 e5                	mov    %esp,%ebp
   118f3:	56                   	push   %esi
   118f4:	8b 75 08             	mov    0x8(%ebp),%esi
   118f7:	53                   	push   %ebx
   118f8:	8b 5d 0c             	mov    0xc(%ebp),%ebx
   118fb:	e8 40 fe ff ff       	call   11740 <get_ticks>
   11900:	8b 16                	mov    (%esi),%edx
   11902:	01 c2                	add    %eax,%edx
   11904:	2b 13                	sub    (%ebx),%edx
   11906:	89 16                	mov    %edx,(%esi)
   11908:	89 03                	mov    %eax,(%ebx)
   1190a:	5b                   	pop    %ebx
   1190b:	5e                   	pop    %esi
   1190c:	5d                   	pop    %ebp
   1190d:	c3                   	ret    

0001190e <sys_read_console>:
   1190e:	55                   	push   %ebp
   1190f:	89 e5                	mov    %esp,%ebp
   11911:	83 ec 18             	sub    $0x18,%esp
   11914:	8b 45 0c             	mov    0xc(%ebp),%eax
   11917:	89 45 f4             	mov    %eax,-0xc(%ebp)
   1191a:	83 ec 0c             	sub    $0xc,%esp
   1191d:	ff 75 0c             	pushl  0xc(%ebp)
   11920:	e8 75 00 00 00       	call   1199a <zeos_read_console_emul>
   11925:	83 c4 10             	add    $0x10,%esp
   11928:	89 45 f4             	mov    %eax,-0xc(%ebp)
   1192b:	8b 45 f4             	mov    -0xc(%ebp),%eax
   1192e:	c9                   	leave  
   1192f:	c3                   	ret    

00011930 <zeos_console_init>:
   11930:	55                   	push   %ebp
   11931:	89 e5                	mov    %esp,%ebp
   11933:	83 ec 18             	sub    $0x18,%esp
   11936:	83 ec 0c             	sub    $0xc,%esp
   11939:	68 68 4a 01 00       	push   $0x14a68
   1193e:	e8 0d ff ff ff       	call   11850 <INIT_LIST_HEAD>
   11943:	83 c4 10             	add    $0x10,%esp
   11946:	83 ec 0c             	sub    $0xc,%esp
   11949:	68 60 4a 01 00       	push   $0x14a60
   1194e:	e8 fd fe ff ff       	call   11850 <INIT_LIST_HEAD>
   11953:	83 c4 10             	add    $0x10,%esp
   11956:	83 ec 0c             	sub    $0xc,%esp
   11959:	68 70 4a 01 00       	push   $0x14a70
   1195e:	e8 ed fe ff ff       	call   11850 <INIT_LIST_HEAD>
   11963:	83 c4 10             	add    $0x10,%esp
   11966:	c7 45 f4 00 00 00 00 	movl   $0x0,-0xc(%ebp)
   1196d:	eb 23                	jmp    11992 <zeos_console_init+0x62>
   1196f:	8b 45 f4             	mov    -0xc(%ebp),%eax
   11972:	c1 e0 04             	shl    $0x4,%eax
   11975:	05 c0 49 01 00       	add    $0x149c0,%eax
   1197a:	83 c0 08             	add    $0x8,%eax
   1197d:	83 ec 08             	sub    $0x8,%esp
   11980:	68 70 4a 01 00       	push   $0x14a70
   11985:	50                   	push   %eax
   11986:	e8 d5 fe ff ff       	call   11860 <list_add>
   1198b:	83 c4 10             	add    $0x10,%esp
   1198e:	83 45 f4 01          	addl   $0x1,-0xc(%ebp)
   11992:	83 7d f4 09          	cmpl   $0x9,-0xc(%ebp)
   11996:	7e d7                	jle    1196f <zeos_console_init+0x3f>
   11998:	c9                   	leave  
   11999:	c3                   	ret    

0001199a <zeos_read_console_emul>:
   1199a:	55                   	push   %ebp
   1199b:	89 e5                	mov    %esp,%ebp
   1199d:	83 ec 18             	sub    $0x18,%esp
   119a0:	83 ec 0c             	sub    $0xc,%esp
   119a3:	68 70 4a 01 00       	push   $0x14a70
   119a8:	e8 33 ff ff ff       	call   118e0 <list_empty>
   119ad:	83 c4 10             	add    $0x10,%esp
   119b0:	85 c0                	test   %eax,%eax
   119b2:	74 07                	je     119bb <zeos_read_console_emul+0x21>
   119b4:	b8 f5 ff ff ff       	mov    $0xfffffff5,%eax
   119b9:	eb 5c                	jmp    11a17 <zeos_read_console_emul+0x7d>
   119bb:	a1 70 4a 01 00       	mov    0x14a70,%eax
   119c0:	83 e8 08             	sub    $0x8,%eax
   119c3:	89 45 f4             	mov    %eax,-0xc(%ebp)
   119c6:	8b 45 f4             	mov    -0xc(%ebp),%eax
   119c9:	83 c0 08             	add    $0x8,%eax
   119cc:	83 ec 0c             	sub    $0xc,%esp
   119cf:	50                   	push   %eax
   119d0:	e8 cb fe ff ff       	call   118a0 <list_del>
   119d5:	83 c4 10             	add    $0x10,%esp
   119d8:	8b 45 f4             	mov    -0xc(%ebp),%eax
   119db:	8b 55 08             	mov    0x8(%ebp),%edx
   119de:	89 50 04             	mov    %edx,0x4(%eax)
   119e1:	e8 2a f0 ff ff       	call   10a10 <current>
   119e6:	89 c2                	mov    %eax,%edx
   119e8:	8b 45 f4             	mov    -0xc(%ebp),%eax
   119eb:	89 10                	mov    %edx,(%eax)
   119ed:	8b 45 f4             	mov    -0xc(%ebp),%eax
   119f0:	83 c0 08             	add    $0x8,%eax
   119f3:	83 ec 08             	sub    $0x8,%esp
   119f6:	68 68 4a 01 00       	push   $0x14a68
   119fb:	50                   	push   %eax
   119fc:	e8 7f fe ff ff       	call   11880 <list_add_tail>
   11a01:	83 c4 10             	add    $0x10,%esp
   11a04:	83 ec 0c             	sub    $0xc,%esp
   11a07:	68 60 4a 01 00       	push   $0x14a60
   11a0c:	e8 2f f0 ff ff       	call   10a40 <block_process>
   11a11:	83 c4 10             	add    $0x10,%esp
   11a14:	8b 45 08             	mov    0x8(%ebp),%eax
   11a17:	c9                   	leave  
   11a18:	c3                   	ret    

00011a19 <zeos_update_read_console_emul>:
   11a19:	55                   	push   %ebp
   11a1a:	89 e5                	mov    %esp,%ebp
   11a1c:	83 ec 18             	sub    $0x18,%esp
   11a1f:	83 ec 0c             	sub    $0xc,%esp
   11a22:	68 68 4a 01 00       	push   $0x14a68
   11a27:	e8 b4 fe ff ff       	call   118e0 <list_empty>
   11a2c:	83 c4 10             	add    $0x10,%esp
   11a2f:	85 c0                	test   %eax,%eax
   11a31:	75 5e                	jne    11a91 <zeos_update_read_console_emul+0x78>
   11a33:	a1 68 4a 01 00       	mov    0x14a68,%eax
   11a38:	83 e8 08             	sub    $0x8,%eax
   11a3b:	89 45 f4             	mov    %eax,-0xc(%ebp)
   11a3e:	8b 45 f4             	mov    -0xc(%ebp),%eax
   11a41:	8b 40 04             	mov    0x4(%eax),%eax
   11a44:	8d 50 ff             	lea    -0x1(%eax),%edx
   11a47:	8b 45 f4             	mov    -0xc(%ebp),%eax
   11a4a:	89 50 04             	mov    %edx,0x4(%eax)
   11a4d:	8b 45 f4             	mov    -0xc(%ebp),%eax
   11a50:	8b 40 04             	mov    0x4(%eax),%eax
   11a53:	85 c0                	test   %eax,%eax
   11a55:	7f 3a                	jg     11a91 <zeos_update_read_console_emul+0x78>
   11a57:	8b 45 f4             	mov    -0xc(%ebp),%eax
   11a5a:	83 c0 08             	add    $0x8,%eax
   11a5d:	83 ec 0c             	sub    $0xc,%esp
   11a60:	50                   	push   %eax
   11a61:	e8 3a fe ff ff       	call   118a0 <list_del>
   11a66:	83 c4 10             	add    $0x10,%esp
   11a69:	8b 45 f4             	mov    -0xc(%ebp),%eax
   11a6c:	83 c0 08             	add    $0x8,%eax
   11a6f:	83 ec 08             	sub    $0x8,%esp
   11a72:	68 70 4a 01 00       	push   $0x14a70
   11a77:	50                   	push   %eax
   11a78:	e8 e3 fd ff ff       	call   11860 <list_add>
   11a7d:	83 c4 10             	add    $0x10,%esp
   11a80:	8b 45 f4             	mov    -0xc(%ebp),%eax
   11a83:	8b 00                	mov    (%eax),%eax
   11a85:	83 ec 0c             	sub    $0xc,%esp
   11a88:	50                   	push   %eax
   11a89:	e8 f2 ef ff ff       	call   10a80 <unblock_process>
   11a8e:	83 c4 10             	add    $0x10,%esp
   11a91:	c9                   	leave  
   11a92:	c3                   	ret    

00011a93 <init_sched_policy>:
   11a93:	55                   	push   %ebp
   11a94:	89 e5                	mov    %esp,%ebp
   11a96:	c7 05 84 4a 01 00 c0 	movl   $0x11ac0,0x14a84
   11a9d:	1a 01 00 
   11aa0:	c7 05 80 4a 01 00 56 	movl   $0x11b56,0x14a80
   11aa7:	1b 01 00 
   11aaa:	c7 05 7c 4a 01 00 a7 	movl   $0x11ba7,0x14a7c
   11ab1:	1b 01 00 
   11ab4:	c7 05 78 4a 01 00 df 	movl   $0x11bdf,0x14a78
   11abb:	1b 01 00 
   11abe:	5d                   	pop    %ebp
   11abf:	c3                   	ret    

00011ac0 <sched_next_fcfs>:
   11ac0:	55                   	push   %ebp
   11ac1:	89 e5                	mov    %esp,%ebp
   11ac3:	83 ec 18             	sub    $0x18,%esp
   11ac6:	83 ec 0c             	sub    $0xc,%esp
   11ac9:	68 d4 44 01 00       	push   $0x144d4
   11ace:	e8 0d fe ff ff       	call   118e0 <list_empty>
   11ad3:	83 c4 10             	add    $0x10,%esp
   11ad6:	85 c0                	test   %eax,%eax
   11ad8:	75 29                	jne    11b03 <sched_next_fcfs+0x43>
   11ada:	a1 d4 44 01 00       	mov    0x144d4,%eax
   11adf:	89 45 f0             	mov    %eax,-0x10(%ebp)
   11ae2:	83 ec 0c             	sub    $0xc,%esp
   11ae5:	ff 75 f0             	pushl  -0x10(%ebp)
   11ae8:	e8 b3 fd ff ff       	call   118a0 <list_del>
   11aed:	83 c4 10             	add    $0x10,%esp
   11af0:	83 ec 0c             	sub    $0xc,%esp
   11af3:	ff 75 f0             	pushl  -0x10(%ebp)
   11af6:	e8 b5 ea ff ff       	call   105b0 <list_head_to_task_struct>
   11afb:	83 c4 10             	add    $0x10,%esp
   11afe:	89 45 f4             	mov    %eax,-0xc(%ebp)
   11b01:	eb 08                	jmp    11b0b <sched_next_fcfs+0x4b>
   11b03:	a1 c8 44 01 00       	mov    0x144c8,%eax
   11b08:	89 45 f4             	mov    %eax,-0xc(%ebp)
   11b0b:	83 ec 0c             	sub    $0xc,%esp
   11b0e:	ff 75 f4             	pushl  -0xc(%ebp)
   11b11:	e8 0a ef ff ff       	call   10a20 <get_task_stats>
   11b16:	83 c4 10             	add    $0x10,%esp
   11b19:	89 45 ec             	mov    %eax,-0x14(%ebp)
   11b1c:	e8 1f fc ff ff       	call   11740 <get_ticks>
   11b21:	89 c2                	mov    %eax,%edx
   11b23:	8b 45 ec             	mov    -0x14(%ebp),%eax
   11b26:	8b 40 10             	mov    0x10(%eax),%eax
   11b29:	29 c2                	sub    %eax,%edx
   11b2b:	8b 45 ec             	mov    -0x14(%ebp),%eax
   11b2e:	8b 40 0c             	mov    0xc(%eax),%eax
   11b31:	01 c2                	add    %eax,%edx
   11b33:	8b 45 ec             	mov    -0x14(%ebp),%eax
   11b36:	89 50 0c             	mov    %edx,0xc(%eax)
   11b39:	e8 02 fc ff ff       	call   11740 <get_ticks>
   11b3e:	89 c2                	mov    %eax,%edx
   11b40:	8b 45 ec             	mov    -0x14(%ebp),%eax
   11b43:	89 50 10             	mov    %edx,0x10(%eax)
   11b46:	83 ec 0c             	sub    $0xc,%esp
   11b49:	ff 75 f4             	pushl  -0xc(%ebp)
   11b4c:	e8 cf ec ff ff       	call   10820 <task_switch>
   11b51:	83 c4 10             	add    $0x10,%esp
   11b54:	c9                   	leave  
   11b55:	c3                   	ret    

00011b56 <update_process_state_fcfs>:
   11b56:	55                   	push   %ebp
   11b57:	89 e5                	mov    %esp,%ebp
   11b59:	83 ec 18             	sub    $0x18,%esp
   11b5c:	83 ec 0c             	sub    $0xc,%esp
   11b5f:	ff 75 08             	pushl  0x8(%ebp)
   11b62:	e8 c9 ee ff ff       	call   10a30 <get_task_list>
   11b67:	83 c4 10             	add    $0x10,%esp
   11b6a:	89 45 f4             	mov    %eax,-0xc(%ebp)
   11b6d:	8b 45 f4             	mov    -0xc(%ebp),%eax
   11b70:	8b 00                	mov    (%eax),%eax
   11b72:	85 c0                	test   %eax,%eax
   11b74:	74 0e                	je     11b84 <update_process_state_fcfs+0x2e>
   11b76:	83 ec 0c             	sub    $0xc,%esp
   11b79:	ff 75 f4             	pushl  -0xc(%ebp)
   11b7c:	e8 1f fd ff ff       	call   118a0 <list_del>
   11b81:	83 c4 10             	add    $0x10,%esp
   11b84:	83 7d 0c 00          	cmpl   $0x0,0xc(%ebp)
   11b88:	74 1b                	je     11ba5 <update_process_state_fcfs+0x4f>
   11b8a:	a1 c8 44 01 00       	mov    0x144c8,%eax
   11b8f:	39 45 08             	cmp    %eax,0x8(%ebp)
   11b92:	74 11                	je     11ba5 <update_process_state_fcfs+0x4f>
   11b94:	83 ec 08             	sub    $0x8,%esp
   11b97:	ff 75 0c             	pushl  0xc(%ebp)
   11b9a:	ff 75 f4             	pushl  -0xc(%ebp)
   11b9d:	e8 de fc ff ff       	call   11880 <list_add_tail>
   11ba2:	83 c4 10             	add    $0x10,%esp
   11ba5:	c9                   	leave  
   11ba6:	c3                   	ret    

00011ba7 <needs_sched_fcfs>:
   11ba7:	55                   	push   %ebp
   11ba8:	89 e5                	mov    %esp,%ebp
   11baa:	83 ec 08             	sub    $0x8,%esp
   11bad:	e8 5e ee ff ff       	call   10a10 <current>
   11bb2:	89 c2                	mov    %eax,%edx
   11bb4:	a1 c8 44 01 00       	mov    0x144c8,%eax
   11bb9:	39 c2                	cmp    %eax,%edx
   11bbb:	75 1b                	jne    11bd8 <needs_sched_fcfs+0x31>
   11bbd:	83 ec 0c             	sub    $0xc,%esp
   11bc0:	68 d4 44 01 00       	push   $0x144d4
   11bc5:	e8 16 fd ff ff       	call   118e0 <list_empty>
   11bca:	83 c4 10             	add    $0x10,%esp
   11bcd:	85 c0                	test   %eax,%eax
   11bcf:	75 07                	jne    11bd8 <needs_sched_fcfs+0x31>
   11bd1:	b8 01 00 00 00       	mov    $0x1,%eax
   11bd6:	eb 05                	jmp    11bdd <needs_sched_fcfs+0x36>
   11bd8:	b8 00 00 00 00       	mov    $0x0,%eax
   11bdd:	c9                   	leave  
   11bde:	c3                   	ret    

00011bdf <update_sched_data_fcfs>:
   11bdf:	55                   	push   %ebp
   11be0:	89 e5                	mov    %esp,%ebp
   11be2:	5d                   	pop    %ebp
   11be3:	c3                   	ret    

00011be4 <sys_set_sched_policy>:
   11be4:	55                   	push   %ebp
   11be5:	89 e5                	mov    %esp,%ebp
   11be7:	83 7d 08 00          	cmpl   $0x0,0x8(%ebp)
   11beb:	74 0d                	je     11bfa <sys_set_sched_policy+0x16>
   11bed:	83 7d 08 01          	cmpl   $0x1,0x8(%ebp)
   11bf1:	74 07                	je     11bfa <sys_set_sched_policy+0x16>
   11bf3:	b8 ea ff ff ff       	mov    $0xffffffea,%eax
   11bf8:	eb 5d                	jmp    11c57 <sys_set_sched_policy+0x73>
   11bfa:	83 7d 08 00          	cmpl   $0x0,0x8(%ebp)
   11bfe:	75 2a                	jne    11c2a <sys_set_sched_policy+0x46>
   11c00:	c7 05 84 4a 01 00 40 	movl   $0x10940,0x14a84
   11c07:	09 01 00 
   11c0a:	c7 05 80 4a 01 00 c0 	movl   $0x108c0,0x14a80
   11c11:	08 01 00 
   11c14:	c7 05 7c 4a 01 00 70 	movl   $0x10870,0x14a7c
   11c1b:	08 01 00 
   11c1e:	c7 05 78 4a 01 00 60 	movl   $0x10860,0x14a78
   11c25:	08 01 00 
   11c28:	eb 28                	jmp    11c52 <sys_set_sched_policy+0x6e>
   11c2a:	c7 05 84 4a 01 00 c0 	movl   $0x11ac0,0x14a84
   11c31:	1a 01 00 
   11c34:	c7 05 80 4a 01 00 56 	movl   $0x11b56,0x14a80
   11c3b:	1b 01 00 
   11c3e:	c7 05 7c 4a 01 00 a7 	movl   $0x11ba7,0x14a7c
   11c45:	1b 01 00 
   11c48:	c7 05 78 4a 01 00 df 	movl   $0x11bdf,0x14a78
   11c4f:	1b 01 00 
   11c52:	b8 00 00 00 00       	mov    $0x0,%eax
   11c57:	5d                   	pop    %ebp
   11c58:	c3                   	ret    

00011c59 <sys_read>:
   11c59:	55                   	push   %ebp
   11c5a:	89 e5                	mov    %esp,%ebp
   11c5c:	83 ec 08             	sub    $0x8,%esp
   11c5f:	83 7d 08 00          	cmpl   $0x0,0x8(%ebp)
   11c63:	74 07                	je     11c6c <sys_read+0x13>
   11c65:	b8 f7 ff ff ff       	mov    $0xfffffff7,%eax
   11c6a:	eb 1e                	jmp    11c8a <sys_read+0x31>
   11c6c:	83 7d 10 00          	cmpl   $0x0,0x10(%ebp)
   11c70:	79 07                	jns    11c79 <sys_read+0x20>
   11c72:	b8 ea ff ff ff       	mov    $0xffffffea,%eax
   11c77:	eb 11                	jmp    11c8a <sys_read+0x31>
   11c79:	83 ec 08             	sub    $0x8,%esp
   11c7c:	ff 75 10             	pushl  0x10(%ebp)
   11c7f:	ff 75 0c             	pushl  0xc(%ebp)
   11c82:	e8 87 fc ff ff       	call   1190e <sys_read_console>
   11c87:	83 c4 10             	add    $0x10,%esp
   11c8a:	c9                   	leave  
   11c8b:	c3                   	ret    
   11c8c:	66 90                	xchg   %ax,%ax
   11c8e:	66 90                	xchg   %ax,%ax

00011c90 <itoa.part.0>:
   11c90:	55                   	push   %ebp
   11c91:	89 c1                	mov    %eax,%ecx
   11c93:	89 e5                	mov    %esp,%ebp
   11c95:	57                   	push   %edi
   11c96:	56                   	push   %esi
   11c97:	31 f6                	xor    %esi,%esi
   11c99:	85 c0                	test   %eax,%eax
   11c9b:	53                   	push   %ebx
   11c9c:	bf 67 66 66 66       	mov    $0x66666667,%edi
   11ca1:	89 d3                	mov    %edx,%ebx
   11ca3:	7e 51                	jle    11cf6 <itoa.part.0+0x66>
   11ca5:	8d 76 00             	lea    0x0(%esi),%esi
   11ca8:	89 c8                	mov    %ecx,%eax
   11caa:	f7 ef                	imul   %edi
   11cac:	89 c8                	mov    %ecx,%eax
   11cae:	c1 f8 1f             	sar    $0x1f,%eax
   11cb1:	c1 fa 02             	sar    $0x2,%edx
   11cb4:	29 c2                	sub    %eax,%edx
   11cb6:	8d 04 92             	lea    (%edx,%edx,4),%eax
   11cb9:	01 c0                	add    %eax,%eax
   11cbb:	29 c1                	sub    %eax,%ecx
   11cbd:	83 c1 30             	add    $0x30,%ecx
   11cc0:	88 0c 33             	mov    %cl,(%ebx,%esi,1)
   11cc3:	83 c6 01             	add    $0x1,%esi
   11cc6:	85 d2                	test   %edx,%edx
   11cc8:	89 d1                	mov    %edx,%ecx
   11cca:	75 dc                	jne    11ca8 <itoa.part.0+0x18>
   11ccc:	89 f2                	mov    %esi,%edx
   11cce:	d1 fa                	sar    %edx
   11cd0:	74 24                	je     11cf6 <itoa.part.0+0x66>
   11cd2:	8d 44 1e ff          	lea    -0x1(%esi,%ebx,1),%eax
   11cd6:	8d 34 13             	lea    (%ebx,%edx,1),%esi
   11cd9:	8d b4 26 00 00 00 00 	lea    0x0(%esi,%eiz,1),%esi
   11ce0:	0f b6 08             	movzbl (%eax),%ecx
   11ce3:	0f b6 13             	movzbl (%ebx),%edx
   11ce6:	83 c3 01             	add    $0x1,%ebx
   11ce9:	83 e8 01             	sub    $0x1,%eax
   11cec:	88 4b ff             	mov    %cl,-0x1(%ebx)
   11cef:	88 50 01             	mov    %dl,0x1(%eax)
   11cf2:	39 f3                	cmp    %esi,%ebx
   11cf4:	75 ea                	jne    11ce0 <itoa.part.0+0x50>
   11cf6:	5b                   	pop    %ebx
   11cf7:	5e                   	pop    %esi
   11cf8:	5f                   	pop    %edi
   11cf9:	5d                   	pop    %ebp
   11cfa:	c3                   	ret    
   11cfb:	90                   	nop
   11cfc:	8d 74 26 00          	lea    0x0(%esi,%eiz,1),%esi

00011d00 <itoa>:
   11d00:	55                   	push   %ebp
   11d01:	89 e5                	mov    %esp,%ebp
   11d03:	8b 45 08             	mov    0x8(%ebp),%eax
   11d06:	8b 55 0c             	mov    0xc(%ebp),%edx
   11d09:	85 c0                	test   %eax,%eax
   11d0b:	74 03                	je     11d10 <itoa+0x10>
   11d0d:	5d                   	pop    %ebp
   11d0e:	eb 80                	jmp    11c90 <itoa.part.0>
   11d10:	c6 02 30             	movb   $0x30,(%edx)
   11d13:	5d                   	pop    %ebp
   11d14:	c3                   	ret    
   11d15:	8d 74 26 00          	lea    0x0(%esi,%eiz,1),%esi
   11d19:	8d bc 27 00 00 00 00 	lea    0x0(%edi,%eiz,1),%edi

00011d20 <zeos_show_clock>:
   11d20:	a1 8c 3c 01 00       	mov    0x13c8c,%eax
   11d25:	83 c0 01             	add    $0x1,%eax
   11d28:	83 f8 12             	cmp    $0x12,%eax
   11d2b:	a3 8c 3c 01 00       	mov    %eax,0x13c8c
   11d30:	74 06                	je     11d38 <zeos_show_clock+0x18>
   11d32:	c3                   	ret    
   11d33:	90                   	nop
   11d34:	8d 74 26 00          	lea    0x0(%esi,%eiz,1),%esi
   11d38:	55                   	push   %ebp
   11d39:	89 e5                	mov    %esp,%ebp
   11d3b:	53                   	push   %ebx
   11d3c:	83 ec 10             	sub    $0x10,%esp
   11d3f:	a1 88 3c 01 00       	mov    0x13c88,%eax
   11d44:	c7 05 8c 3c 01 00 00 	movl   $0x0,0x13c8c
   11d4b:	00 00 00 
   11d4e:	83 c0 01             	add    $0x1,%eax
   11d51:	83 f8 3c             	cmp    $0x3c,%eax
   11d54:	a3 88 3c 01 00       	mov    %eax,0x13c88
   11d59:	0f 84 d9 00 00 00    	je     11e38 <zeos_show_clock+0x118>
   11d5f:	a1 84 3c 01 00       	mov    0x13c84,%eax
   11d64:	85 c0                	test   %eax,%eax
   11d66:	0f 85 bc 00 00 00    	jne    11e28 <zeos_show_clock+0x108>
   11d6c:	c6 45 f4 30          	movb   $0x30,-0xc(%ebp)
   11d70:	a1 88 3c 01 00       	mov    0x13c88,%eax
   11d75:	31 c9                	xor    %ecx,%ecx
   11d77:	ba 30 02 00 00       	mov    $0x230,%edx
   11d7c:	85 c0                	test   %eax,%eax
   11d7e:	0f 85 84 00 00 00    	jne    11e08 <zeos_show_clock+0xe8>
   11d84:	83 3d 84 3c 01 00 09 	cmpl   $0x9,0x13c84
   11d8b:	7f 43                	jg     11dd0 <zeos_show_clock+0xb0>
   11d8d:	b8 8c 80 0b 00       	mov    $0xb808c,%eax
   11d92:	66 c7 00 30 02       	movw   $0x230,(%eax)
   11d97:	0f b6 45 f4          	movzbl -0xc(%ebp),%eax
   11d9b:	bb 8e 80 0b 00       	mov    $0xb808e,%ebx
   11da0:	80 cc 02             	or     $0x2,%ah
   11da3:	66 89 03             	mov    %ax,(%ebx)
   11da6:	b8 90 80 0b 00       	mov    $0xb8090,%eax
   11dab:	66 c7 00 3a 02       	movw   $0x23a,(%eax)
   11db0:	83 f9 09             	cmp    $0x9,%ecx
   11db3:	7e 3b                	jle    11df0 <zeos_show_clock+0xd0>
   11db5:	b0 92                	mov    $0x92,%al
   11db7:	66 89 10             	mov    %dx,(%eax)
   11dba:	0f b6 45 f9          	movzbl -0x7(%ebp),%eax
   11dbe:	ba 94 80 0b 00       	mov    $0xb8094,%edx
   11dc3:	80 cc 02             	or     $0x2,%ah
   11dc6:	66 89 02             	mov    %ax,(%edx)
   11dc9:	83 c4 10             	add    $0x10,%esp
   11dcc:	5b                   	pop    %ebx
   11dcd:	5d                   	pop    %ebp
   11dce:	c3                   	ret    
   11dcf:	90                   	nop
   11dd0:	0f b6 45 f4          	movzbl -0xc(%ebp),%eax
   11dd4:	bb 8c 80 0b 00       	mov    $0xb808c,%ebx
   11dd9:	80 cc 02             	or     $0x2,%ah
   11ddc:	66 89 03             	mov    %ax,(%ebx)
   11ddf:	0f b6 45 f5          	movzbl -0xb(%ebp),%eax
   11de3:	b3 8e                	mov    $0x8e,%bl
   11de5:	80 cc 02             	or     $0x2,%ah
   11de8:	66 89 03             	mov    %ax,(%ebx)
   11deb:	eb b9                	jmp    11da6 <zeos_show_clock+0x86>
   11ded:	8d 76 00             	lea    0x0(%esi),%esi
   11df0:	b8 92 80 0b 00       	mov    $0xb8092,%eax
   11df5:	66 c7 00 30 02       	movw   $0x230,(%eax)
   11dfa:	b0 94                	mov    $0x94,%al
   11dfc:	66 89 10             	mov    %dx,(%eax)
   11dff:	eb c8                	jmp    11dc9 <zeos_show_clock+0xa9>
   11e01:	8d b4 26 00 00 00 00 	lea    0x0(%esi,%eiz,1),%esi
   11e08:	8d 55 f8             	lea    -0x8(%ebp),%edx
   11e0b:	e8 80 fe ff ff       	call   11c90 <itoa.part.0>
   11e10:	0f b6 55 f8          	movzbl -0x8(%ebp),%edx
   11e14:	8b 0d 88 3c 01 00    	mov    0x13c88,%ecx
   11e1a:	80 ce 02             	or     $0x2,%dh
   11e1d:	e9 62 ff ff ff       	jmp    11d84 <zeos_show_clock+0x64>
   11e22:	8d b6 00 00 00 00    	lea    0x0(%esi),%esi
   11e28:	8d 55 f4             	lea    -0xc(%ebp),%edx
   11e2b:	e8 60 fe ff ff       	call   11c90 <itoa.part.0>
   11e30:	e9 3b ff ff ff       	jmp    11d70 <zeos_show_clock+0x50>
   11e35:	8d 76 00             	lea    0x0(%esi),%esi
   11e38:	a1 84 3c 01 00       	mov    0x13c84,%eax
   11e3d:	c7 05 88 3c 01 00 00 	movl   $0x0,0x13c88
   11e44:	00 00 00 
   11e47:	83 c0 01             	add    $0x1,%eax
   11e4a:	a3 84 3c 01 00       	mov    %eax,0x13c84
   11e4f:	e9 10 ff ff ff       	jmp    11d64 <zeos_show_clock+0x44>
   11e54:	8d b6 00 00 00 00    	lea    0x0(%esi),%esi
   11e5a:	8d bf 00 00 00 00    	lea    0x0(%edi),%edi

00011e60 <divide_error_routine>:
   11e60:	55                   	push   %ebp
   11e61:	89 e5                	mov    %esp,%ebp
   11e63:	83 ec 14             	sub    $0x14,%esp
   11e66:	68 8a 28 01 00       	push   $0x1288a
   11e6b:	e8 f0 e6 ff ff       	call   10560 <printk>
   11e70:	83 c4 10             	add    $0x10,%esp
   11e73:	eb fe                	jmp    11e73 <divide_error_routine+0x13>
   11e75:	8d 74 26 00          	lea    0x0(%esi,%eiz,1),%esi
   11e79:	8d bc 27 00 00 00 00 	lea    0x0(%edi,%eiz,1),%edi

00011e80 <debug_routine>:
   11e80:	55                   	push   %ebp
   11e81:	89 e5                	mov    %esp,%ebp
   11e83:	83 ec 14             	sub    $0x14,%esp
   11e86:	68 9f 28 01 00       	push   $0x1289f
   11e8b:	e8 d0 e6 ff ff       	call   10560 <printk>
   11e90:	83 c4 10             	add    $0x10,%esp
   11e93:	eb fe                	jmp    11e93 <debug_routine+0x13>
   11e95:	8d 74 26 00          	lea    0x0(%esi,%eiz,1),%esi
   11e99:	8d bc 27 00 00 00 00 	lea    0x0(%edi,%eiz,1),%edi

00011ea0 <nm1_routine>:
   11ea0:	55                   	push   %ebp
   11ea1:	89 e5                	mov    %esp,%ebp
   11ea3:	83 ec 14             	sub    $0x14,%esp
   11ea6:	68 ad 28 01 00       	push   $0x128ad
   11eab:	e8 b0 e6 ff ff       	call   10560 <printk>
   11eb0:	83 c4 10             	add    $0x10,%esp
   11eb3:	eb fe                	jmp    11eb3 <nm1_routine+0x13>
   11eb5:	8d 74 26 00          	lea    0x0(%esi,%eiz,1),%esi
   11eb9:	8d bc 27 00 00 00 00 	lea    0x0(%edi,%eiz,1),%edi

00011ec0 <breakpoint_routine>:
   11ec0:	55                   	push   %ebp
   11ec1:	89 e5                	mov    %esp,%ebp
   11ec3:	83 ec 14             	sub    $0x14,%esp
   11ec6:	68 b9 28 01 00       	push   $0x128b9
   11ecb:	e8 90 e6 ff ff       	call   10560 <printk>
   11ed0:	83 c4 10             	add    $0x10,%esp
   11ed3:	eb fe                	jmp    11ed3 <breakpoint_routine+0x13>
   11ed5:	8d 74 26 00          	lea    0x0(%esi,%eiz,1),%esi
   11ed9:	8d bc 27 00 00 00 00 	lea    0x0(%edi,%eiz,1),%edi

00011ee0 <overflow_routine>:
   11ee0:	55                   	push   %ebp
   11ee1:	89 e5                	mov    %esp,%ebp
   11ee3:	83 ec 14             	sub    $0x14,%esp
   11ee6:	68 cc 28 01 00       	push   $0x128cc
   11eeb:	e8 70 e6 ff ff       	call   10560 <printk>
   11ef0:	83 c4 10             	add    $0x10,%esp
   11ef3:	eb fe                	jmp    11ef3 <overflow_routine+0x13>
   11ef5:	8d 74 26 00          	lea    0x0(%esi,%eiz,1),%esi
   11ef9:	8d bc 27 00 00 00 00 	lea    0x0(%edi,%eiz,1),%edi

00011f00 <bounds_check_routine>:
   11f00:	55                   	push   %ebp
   11f01:	89 e5                	mov    %esp,%ebp
   11f03:	83 ec 14             	sub    $0x14,%esp
   11f06:	68 dd 28 01 00       	push   $0x128dd
   11f0b:	e8 50 e6 ff ff       	call   10560 <printk>
   11f10:	83 c4 10             	add    $0x10,%esp
   11f13:	eb fe                	jmp    11f13 <bounds_check_routine+0x13>
   11f15:	8d 74 26 00          	lea    0x0(%esi,%eiz,1),%esi
   11f19:	8d bc 27 00 00 00 00 	lea    0x0(%edi,%eiz,1),%edi

00011f20 <invalid_opcode_routine>:
   11f20:	55                   	push   %ebp
   11f21:	89 e5                	mov    %esp,%ebp
   11f23:	83 ec 14             	sub    $0x14,%esp
   11f26:	68 f2 28 01 00       	push   $0x128f2
   11f2b:	e8 30 e6 ff ff       	call   10560 <printk>
   11f30:	83 c4 10             	add    $0x10,%esp
   11f33:	eb fe                	jmp    11f33 <invalid_opcode_routine+0x13>
   11f35:	8d 74 26 00          	lea    0x0(%esi,%eiz,1),%esi
   11f39:	8d bc 27 00 00 00 00 	lea    0x0(%edi,%eiz,1),%edi

00011f40 <device_not_available_routine>:
   11f40:	55                   	push   %ebp
   11f41:	89 e5                	mov    %esp,%ebp
   11f43:	83 ec 14             	sub    $0x14,%esp
   11f46:	68 09 29 01 00       	push   $0x12909
   11f4b:	e8 10 e6 ff ff       	call   10560 <printk>
   11f50:	83 c4 10             	add    $0x10,%esp
   11f53:	eb fe                	jmp    11f53 <device_not_available_routine+0x13>
   11f55:	8d 74 26 00          	lea    0x0(%esi,%eiz,1),%esi
   11f59:	8d bc 27 00 00 00 00 	lea    0x0(%edi,%eiz,1),%edi

00011f60 <double_fault_routine>:
   11f60:	55                   	push   %ebp
   11f61:	89 e5                	mov    %esp,%ebp
   11f63:	83 ec 14             	sub    $0x14,%esp
   11f66:	68 26 29 01 00       	push   $0x12926
   11f6b:	e8 f0 e5 ff ff       	call   10560 <printk>
   11f70:	83 c4 10             	add    $0x10,%esp
   11f73:	eb fe                	jmp    11f73 <double_fault_routine+0x13>
   11f75:	8d 74 26 00          	lea    0x0(%esi,%eiz,1),%esi
   11f79:	8d bc 27 00 00 00 00 	lea    0x0(%edi,%eiz,1),%edi

00011f80 <coprocessor_segment_overrun_routine>:
   11f80:	55                   	push   %ebp
   11f81:	89 e5                	mov    %esp,%ebp
   11f83:	83 ec 14             	sub    $0x14,%esp
   11f86:	68 74 3b 01 00       	push   $0x13b74
   11f8b:	e8 d0 e5 ff ff       	call   10560 <printk>
   11f90:	83 c4 10             	add    $0x10,%esp
   11f93:	eb fe                	jmp    11f93 <coprocessor_segment_overrun_routine+0x13>
   11f95:	8d 74 26 00          	lea    0x0(%esi,%eiz,1),%esi
   11f99:	8d bc 27 00 00 00 00 	lea    0x0(%edi,%eiz,1),%edi

00011fa0 <invalid_tss_routine>:
   11fa0:	55                   	push   %ebp
   11fa1:	89 e5                	mov    %esp,%ebp
   11fa3:	83 ec 14             	sub    $0x14,%esp
   11fa6:	68 35 29 01 00       	push   $0x12935
   11fab:	e8 b0 e5 ff ff       	call   10560 <printk>
   11fb0:	83 c4 10             	add    $0x10,%esp
   11fb3:	eb fe                	jmp    11fb3 <invalid_tss_routine+0x13>
   11fb5:	8d 74 26 00          	lea    0x0(%esi,%eiz,1),%esi
   11fb9:	8d bc 27 00 00 00 00 	lea    0x0(%edi,%eiz,1),%edi

00011fc0 <segment_not_present_routine>:
   11fc0:	55                   	push   %ebp
   11fc1:	89 e5                	mov    %esp,%ebp
   11fc3:	83 ec 14             	sub    $0x14,%esp
   11fc6:	68 49 29 01 00       	push   $0x12949
   11fcb:	e8 90 e5 ff ff       	call   10560 <printk>
   11fd0:	83 c4 10             	add    $0x10,%esp
   11fd3:	eb fe                	jmp    11fd3 <segment_not_present_routine+0x13>
   11fd5:	8d 74 26 00          	lea    0x0(%esi,%eiz,1),%esi
   11fd9:	8d bc 27 00 00 00 00 	lea    0x0(%edi,%eiz,1),%edi

00011fe0 <stack_exception_routine>:
   11fe0:	55                   	push   %ebp
   11fe1:	89 e5                	mov    %esp,%ebp
   11fe3:	83 ec 14             	sub    $0x14,%esp
   11fe6:	68 65 29 01 00       	push   $0x12965
   11feb:	e8 70 e5 ff ff       	call   10560 <printk>
   11ff0:	83 c4 10             	add    $0x10,%esp
   11ff3:	eb fe                	jmp    11ff3 <stack_exception_routine+0x13>
   11ff5:	8d 74 26 00          	lea    0x0(%esi,%eiz,1),%esi
   11ff9:	8d bc 27 00 00 00 00 	lea    0x0(%edi,%eiz,1),%edi

00012000 <general_protection_routine>:
   12000:	55                   	push   %ebp
   12001:	89 e5                	mov    %esp,%ebp
   12003:	83 ec 14             	sub    $0x14,%esp
   12006:	68 7d 29 01 00       	push   $0x1297d
   1200b:	e8 50 e5 ff ff       	call   10560 <printk>
   12010:	83 c4 10             	add    $0x10,%esp
   12013:	eb fe                	jmp    12013 <general_protection_routine+0x13>
   12015:	8d 74 26 00          	lea    0x0(%esi,%eiz,1),%esi
   12019:	8d bc 27 00 00 00 00 	lea    0x0(%edi,%eiz,1),%edi

00012020 <page_fault_routine>:
   12020:	55                   	push   %ebp
   12021:	89 e5                	mov    %esp,%ebp
   12023:	83 ec 14             	sub    $0x14,%esp
   12026:	68 98 29 01 00       	push   $0x12998
   1202b:	e8 30 e5 ff ff       	call   10560 <printk>
   12030:	83 c4 10             	add    $0x10,%esp
   12033:	eb fe                	jmp    12033 <page_fault_routine+0x13>
   12035:	8d 74 26 00          	lea    0x0(%esi,%eiz,1),%esi
   12039:	8d bc 27 00 00 00 00 	lea    0x0(%edi,%eiz,1),%edi

00012040 <intel_reserved_routine>:
   12040:	55                   	push   %ebp
   12041:	89 e5                	mov    %esp,%ebp
   12043:	83 ec 14             	sub    $0x14,%esp
   12046:	68 a5 29 01 00       	push   $0x129a5
   1204b:	e8 10 e5 ff ff       	call   10560 <printk>
   12050:	83 c4 10             	add    $0x10,%esp
   12053:	eb fe                	jmp    12053 <intel_reserved_routine+0x13>
   12055:	8d 74 26 00          	lea    0x0(%esi,%eiz,1),%esi
   12059:	8d bc 27 00 00 00 00 	lea    0x0(%edi,%eiz,1),%edi

00012060 <floating_point_error_routine>:
   12060:	55                   	push   %ebp
   12061:	89 e5                	mov    %esp,%ebp
   12063:	83 ec 14             	sub    $0x14,%esp
   12066:	68 bc 29 01 00       	push   $0x129bc
   1206b:	e8 f0 e4 ff ff       	call   10560 <printk>
   12070:	83 c4 10             	add    $0x10,%esp
   12073:	eb fe                	jmp    12073 <floating_point_error_routine+0x13>
   12075:	8d 74 26 00          	lea    0x0(%esi,%eiz,1),%esi
   12079:	8d bc 27 00 00 00 00 	lea    0x0(%edi,%eiz,1),%edi

00012080 <alignment_check_routine>:
   12080:	55                   	push   %ebp
   12081:	89 e5                	mov    %esp,%ebp
   12083:	83 ec 14             	sub    $0x14,%esp
   12086:	68 d3 29 01 00       	push   $0x129d3
   1208b:	e8 d0 e4 ff ff       	call   10560 <printk>
   12090:	83 c4 10             	add    $0x10,%esp
   12093:	eb fe                	jmp    12093 <alignment_check_routine+0x13>
   12095:	8d 74 26 00          	lea    0x0(%esi,%eiz,1),%esi
   12099:	8d bc 27 00 00 00 00 	lea    0x0(%edi,%eiz,1),%edi

000120a0 <set_handlers>:
   120a0:	55                   	push   %ebp
   120a1:	89 e5                	mov    %esp,%ebp
   120a3:	83 ec 0c             	sub    $0xc,%esp
   120a6:	6a 00                	push   $0x0
   120a8:	68 da 21 01 00       	push   $0x121da
   120ad:	6a 00                	push   $0x0
   120af:	e8 5c e0 ff ff       	call   10110 <setInterruptHandler>
   120b4:	83 c4 0c             	add    $0xc,%esp
   120b7:	6a 00                	push   $0x0
   120b9:	68 03 22 01 00       	push   $0x12203
   120be:	6a 01                	push   $0x1
   120c0:	e8 4b e0 ff ff       	call   10110 <setInterruptHandler>
   120c5:	83 c4 0c             	add    $0xc,%esp
   120c8:	6a 00                	push   $0x0
   120ca:	68 2c 22 01 00       	push   $0x1222c
   120cf:	6a 02                	push   $0x2
   120d1:	e8 3a e0 ff ff       	call   10110 <setInterruptHandler>
   120d6:	83 c4 0c             	add    $0xc,%esp
   120d9:	6a 00                	push   $0x0
   120db:	68 55 22 01 00       	push   $0x12255
   120e0:	6a 03                	push   $0x3
   120e2:	e8 29 e0 ff ff       	call   10110 <setInterruptHandler>
   120e7:	83 c4 0c             	add    $0xc,%esp
   120ea:	6a 00                	push   $0x0
   120ec:	68 7e 22 01 00       	push   $0x1227e
   120f1:	6a 04                	push   $0x4
   120f3:	e8 18 e0 ff ff       	call   10110 <setInterruptHandler>
   120f8:	83 c4 0c             	add    $0xc,%esp
   120fb:	6a 00                	push   $0x0
   120fd:	68 a7 22 01 00       	push   $0x122a7
   12102:	6a 05                	push   $0x5
   12104:	e8 07 e0 ff ff       	call   10110 <setInterruptHandler>
   12109:	83 c4 0c             	add    $0xc,%esp
   1210c:	6a 00                	push   $0x0
   1210e:	68 d0 22 01 00       	push   $0x122d0
   12113:	6a 06                	push   $0x6
   12115:	e8 f6 df ff ff       	call   10110 <setInterruptHandler>
   1211a:	83 c4 0c             	add    $0xc,%esp
   1211d:	6a 00                	push   $0x0
   1211f:	68 f9 22 01 00       	push   $0x122f9
   12124:	6a 07                	push   $0x7
   12126:	e8 e5 df ff ff       	call   10110 <setInterruptHandler>
   1212b:	83 c4 0c             	add    $0xc,%esp
   1212e:	6a 00                	push   $0x0
   12130:	68 22 23 01 00       	push   $0x12322
   12135:	6a 08                	push   $0x8
   12137:	e8 d4 df ff ff       	call   10110 <setInterruptHandler>
   1213c:	83 c4 0c             	add    $0xc,%esp
   1213f:	6a 00                	push   $0x0
   12141:	68 4b 23 01 00       	push   $0x1234b
   12146:	6a 09                	push   $0x9
   12148:	e8 c3 df ff ff       	call   10110 <setInterruptHandler>
   1214d:	83 c4 0c             	add    $0xc,%esp
   12150:	6a 00                	push   $0x0
   12152:	68 74 23 01 00       	push   $0x12374
   12157:	6a 0a                	push   $0xa
   12159:	e8 b2 df ff ff       	call   10110 <setInterruptHandler>
   1215e:	83 c4 0c             	add    $0xc,%esp
   12161:	6a 00                	push   $0x0
   12163:	68 9d 23 01 00       	push   $0x1239d
   12168:	6a 0b                	push   $0xb
   1216a:	e8 a1 df ff ff       	call   10110 <setInterruptHandler>
   1216f:	83 c4 0c             	add    $0xc,%esp
   12172:	6a 00                	push   $0x0
   12174:	68 c6 23 01 00       	push   $0x123c6
   12179:	6a 0c                	push   $0xc
   1217b:	e8 90 df ff ff       	call   10110 <setInterruptHandler>
   12180:	83 c4 0c             	add    $0xc,%esp
   12183:	6a 00                	push   $0x0
   12185:	68 ef 23 01 00       	push   $0x123ef
   1218a:	6a 0d                	push   $0xd
   1218c:	e8 7f df ff ff       	call   10110 <setInterruptHandler>
   12191:	83 c4 0c             	add    $0xc,%esp
   12194:	6a 00                	push   $0x0
   12196:	68 18 24 01 00       	push   $0x12418
   1219b:	6a 0e                	push   $0xe
   1219d:	e8 6e df ff ff       	call   10110 <setInterruptHandler>
   121a2:	83 c4 0c             	add    $0xc,%esp
   121a5:	6a 00                	push   $0x0
   121a7:	68 41 24 01 00       	push   $0x12441
   121ac:	6a 0f                	push   $0xf
   121ae:	e8 5d df ff ff       	call   10110 <setInterruptHandler>
   121b3:	83 c4 0c             	add    $0xc,%esp
   121b6:	6a 00                	push   $0x0
   121b8:	68 6a 24 01 00       	push   $0x1246a
   121bd:	6a 10                	push   $0x10
   121bf:	e8 4c df ff ff       	call   10110 <setInterruptHandler>
   121c4:	83 c4 0c             	add    $0xc,%esp
   121c7:	6a 00                	push   $0x0
   121c9:	68 93 24 01 00       	push   $0x12493
   121ce:	6a 11                	push   $0x11
   121d0:	e8 3b df ff ff       	call   10110 <setInterruptHandler>
   121d5:	83 c4 10             	add    $0x10,%esp
   121d8:	c9                   	leave  
   121d9:	c3                   	ret    

000121da <divide_error_handler>:
   121da:	0f a8                	push   %gs
   121dc:	0f a0                	push   %fs
   121de:	06                   	push   %es
   121df:	1e                   	push   %ds
   121e0:	50                   	push   %eax
   121e1:	55                   	push   %ebp
   121e2:	57                   	push   %edi
   121e3:	56                   	push   %esi
   121e4:	52                   	push   %edx
   121e5:	51                   	push   %ecx
   121e6:	53                   	push   %ebx
   121e7:	ba 18 00 00 00       	mov    $0x18,%edx
   121ec:	8e da                	mov    %edx,%ds
   121ee:	8e c2                	mov    %edx,%es
   121f0:	e8 6b fc ff ff       	call   11e60 <divide_error_routine>
   121f5:	5b                   	pop    %ebx
   121f6:	59                   	pop    %ecx
   121f7:	5a                   	pop    %edx
   121f8:	5e                   	pop    %esi
   121f9:	5f                   	pop    %edi
   121fa:	5d                   	pop    %ebp
   121fb:	58                   	pop    %eax
   121fc:	1f                   	pop    %ds
   121fd:	07                   	pop    %es
   121fe:	0f a1                	pop    %fs
   12200:	0f a9                	pop    %gs
   12202:	cf                   	iret   

00012203 <debug_handler>:
   12203:	0f a8                	push   %gs
   12205:	0f a0                	push   %fs
   12207:	06                   	push   %es
   12208:	1e                   	push   %ds
   12209:	50                   	push   %eax
   1220a:	55                   	push   %ebp
   1220b:	57                   	push   %edi
   1220c:	56                   	push   %esi
   1220d:	52                   	push   %edx
   1220e:	51                   	push   %ecx
   1220f:	53                   	push   %ebx
   12210:	ba 18 00 00 00       	mov    $0x18,%edx
   12215:	8e da                	mov    %edx,%ds
   12217:	8e c2                	mov    %edx,%es
   12219:	e8 62 fc ff ff       	call   11e80 <debug_routine>
   1221e:	5b                   	pop    %ebx
   1221f:	59                   	pop    %ecx
   12220:	5a                   	pop    %edx
   12221:	5e                   	pop    %esi
   12222:	5f                   	pop    %edi
   12223:	5d                   	pop    %ebp
   12224:	58                   	pop    %eax
   12225:	1f                   	pop    %ds
   12226:	07                   	pop    %es
   12227:	0f a1                	pop    %fs
   12229:	0f a9                	pop    %gs
   1222b:	cf                   	iret   

0001222c <nm1_handler>:
   1222c:	0f a8                	push   %gs
   1222e:	0f a0                	push   %fs
   12230:	06                   	push   %es
   12231:	1e                   	push   %ds
   12232:	50                   	push   %eax
   12233:	55                   	push   %ebp
   12234:	57                   	push   %edi
   12235:	56                   	push   %esi
   12236:	52                   	push   %edx
   12237:	51                   	push   %ecx
   12238:	53                   	push   %ebx
   12239:	ba 18 00 00 00       	mov    $0x18,%edx
   1223e:	8e da                	mov    %edx,%ds
   12240:	8e c2                	mov    %edx,%es
   12242:	e8 59 fc ff ff       	call   11ea0 <nm1_routine>
   12247:	5b                   	pop    %ebx
   12248:	59                   	pop    %ecx
   12249:	5a                   	pop    %edx
   1224a:	5e                   	pop    %esi
   1224b:	5f                   	pop    %edi
   1224c:	5d                   	pop    %ebp
   1224d:	58                   	pop    %eax
   1224e:	1f                   	pop    %ds
   1224f:	07                   	pop    %es
   12250:	0f a1                	pop    %fs
   12252:	0f a9                	pop    %gs
   12254:	cf                   	iret   

00012255 <breakpoint_handler>:
   12255:	0f a8                	push   %gs
   12257:	0f a0                	push   %fs
   12259:	06                   	push   %es
   1225a:	1e                   	push   %ds
   1225b:	50                   	push   %eax
   1225c:	55                   	push   %ebp
   1225d:	57                   	push   %edi
   1225e:	56                   	push   %esi
   1225f:	52                   	push   %edx
   12260:	51                   	push   %ecx
   12261:	53                   	push   %ebx
   12262:	ba 18 00 00 00       	mov    $0x18,%edx
   12267:	8e da                	mov    %edx,%ds
   12269:	8e c2                	mov    %edx,%es
   1226b:	e8 50 fc ff ff       	call   11ec0 <breakpoint_routine>
   12270:	5b                   	pop    %ebx
   12271:	59                   	pop    %ecx
   12272:	5a                   	pop    %edx
   12273:	5e                   	pop    %esi
   12274:	5f                   	pop    %edi
   12275:	5d                   	pop    %ebp
   12276:	58                   	pop    %eax
   12277:	1f                   	pop    %ds
   12278:	07                   	pop    %es
   12279:	0f a1                	pop    %fs
   1227b:	0f a9                	pop    %gs
   1227d:	cf                   	iret   

0001227e <overflow_handler>:
   1227e:	0f a8                	push   %gs
   12280:	0f a0                	push   %fs
   12282:	06                   	push   %es
   12283:	1e                   	push   %ds
   12284:	50                   	push   %eax
   12285:	55                   	push   %ebp
   12286:	57                   	push   %edi
   12287:	56                   	push   %esi
   12288:	52                   	push   %edx
   12289:	51                   	push   %ecx
   1228a:	53                   	push   %ebx
   1228b:	ba 18 00 00 00       	mov    $0x18,%edx
   12290:	8e da                	mov    %edx,%ds
   12292:	8e c2                	mov    %edx,%es
   12294:	e8 47 fc ff ff       	call   11ee0 <overflow_routine>
   12299:	5b                   	pop    %ebx
   1229a:	59                   	pop    %ecx
   1229b:	5a                   	pop    %edx
   1229c:	5e                   	pop    %esi
   1229d:	5f                   	pop    %edi
   1229e:	5d                   	pop    %ebp
   1229f:	58                   	pop    %eax
   122a0:	1f                   	pop    %ds
   122a1:	07                   	pop    %es
   122a2:	0f a1                	pop    %fs
   122a4:	0f a9                	pop    %gs
   122a6:	cf                   	iret   

000122a7 <bounds_check_handler>:
   122a7:	0f a8                	push   %gs
   122a9:	0f a0                	push   %fs
   122ab:	06                   	push   %es
   122ac:	1e                   	push   %ds
   122ad:	50                   	push   %eax
   122ae:	55                   	push   %ebp
   122af:	57                   	push   %edi
   122b0:	56                   	push   %esi
   122b1:	52                   	push   %edx
   122b2:	51                   	push   %ecx
   122b3:	53                   	push   %ebx
   122b4:	ba 18 00 00 00       	mov    $0x18,%edx
   122b9:	8e da                	mov    %edx,%ds
   122bb:	8e c2                	mov    %edx,%es
   122bd:	e8 3e fc ff ff       	call   11f00 <bounds_check_routine>
   122c2:	5b                   	pop    %ebx
   122c3:	59                   	pop    %ecx
   122c4:	5a                   	pop    %edx
   122c5:	5e                   	pop    %esi
   122c6:	5f                   	pop    %edi
   122c7:	5d                   	pop    %ebp
   122c8:	58                   	pop    %eax
   122c9:	1f                   	pop    %ds
   122ca:	07                   	pop    %es
   122cb:	0f a1                	pop    %fs
   122cd:	0f a9                	pop    %gs
   122cf:	cf                   	iret   

000122d0 <invalid_opcode_handler>:
   122d0:	0f a8                	push   %gs
   122d2:	0f a0                	push   %fs
   122d4:	06                   	push   %es
   122d5:	1e                   	push   %ds
   122d6:	50                   	push   %eax
   122d7:	55                   	push   %ebp
   122d8:	57                   	push   %edi
   122d9:	56                   	push   %esi
   122da:	52                   	push   %edx
   122db:	51                   	push   %ecx
   122dc:	53                   	push   %ebx
   122dd:	ba 18 00 00 00       	mov    $0x18,%edx
   122e2:	8e da                	mov    %edx,%ds
   122e4:	8e c2                	mov    %edx,%es
   122e6:	e8 35 fc ff ff       	call   11f20 <invalid_opcode_routine>
   122eb:	5b                   	pop    %ebx
   122ec:	59                   	pop    %ecx
   122ed:	5a                   	pop    %edx
   122ee:	5e                   	pop    %esi
   122ef:	5f                   	pop    %edi
   122f0:	5d                   	pop    %ebp
   122f1:	58                   	pop    %eax
   122f2:	1f                   	pop    %ds
   122f3:	07                   	pop    %es
   122f4:	0f a1                	pop    %fs
   122f6:	0f a9                	pop    %gs
   122f8:	cf                   	iret   

000122f9 <device_not_available_handler>:
   122f9:	0f a8                	push   %gs
   122fb:	0f a0                	push   %fs
   122fd:	06                   	push   %es
   122fe:	1e                   	push   %ds
   122ff:	50                   	push   %eax
   12300:	55                   	push   %ebp
   12301:	57                   	push   %edi
   12302:	56                   	push   %esi
   12303:	52                   	push   %edx
   12304:	51                   	push   %ecx
   12305:	53                   	push   %ebx
   12306:	ba 18 00 00 00       	mov    $0x18,%edx
   1230b:	8e da                	mov    %edx,%ds
   1230d:	8e c2                	mov    %edx,%es
   1230f:	e8 2c fc ff ff       	call   11f40 <device_not_available_routine>
   12314:	5b                   	pop    %ebx
   12315:	59                   	pop    %ecx
   12316:	5a                   	pop    %edx
   12317:	5e                   	pop    %esi
   12318:	5f                   	pop    %edi
   12319:	5d                   	pop    %ebp
   1231a:	58                   	pop    %eax
   1231b:	1f                   	pop    %ds
   1231c:	07                   	pop    %es
   1231d:	0f a1                	pop    %fs
   1231f:	0f a9                	pop    %gs
   12321:	cf                   	iret   

00012322 <double_fault_handler>:
   12322:	0f a8                	push   %gs
   12324:	0f a0                	push   %fs
   12326:	06                   	push   %es
   12327:	1e                   	push   %ds
   12328:	50                   	push   %eax
   12329:	55                   	push   %ebp
   1232a:	57                   	push   %edi
   1232b:	56                   	push   %esi
   1232c:	52                   	push   %edx
   1232d:	51                   	push   %ecx
   1232e:	53                   	push   %ebx
   1232f:	ba 18 00 00 00       	mov    $0x18,%edx
   12334:	8e da                	mov    %edx,%ds
   12336:	8e c2                	mov    %edx,%es
   12338:	e8 23 fc ff ff       	call   11f60 <double_fault_routine>
   1233d:	5b                   	pop    %ebx
   1233e:	59                   	pop    %ecx
   1233f:	5a                   	pop    %edx
   12340:	5e                   	pop    %esi
   12341:	5f                   	pop    %edi
   12342:	5d                   	pop    %ebp
   12343:	58                   	pop    %eax
   12344:	1f                   	pop    %ds
   12345:	07                   	pop    %es
   12346:	0f a1                	pop    %fs
   12348:	0f a9                	pop    %gs
   1234a:	cf                   	iret   

0001234b <coprocessor_segment_overrun_handler>:
   1234b:	0f a8                	push   %gs
   1234d:	0f a0                	push   %fs
   1234f:	06                   	push   %es
   12350:	1e                   	push   %ds
   12351:	50                   	push   %eax
   12352:	55                   	push   %ebp
   12353:	57                   	push   %edi
   12354:	56                   	push   %esi
   12355:	52                   	push   %edx
   12356:	51                   	push   %ecx
   12357:	53                   	push   %ebx
   12358:	ba 18 00 00 00       	mov    $0x18,%edx
   1235d:	8e da                	mov    %edx,%ds
   1235f:	8e c2                	mov    %edx,%es
   12361:	e8 1a fc ff ff       	call   11f80 <coprocessor_segment_overrun_routine>
   12366:	5b                   	pop    %ebx
   12367:	59                   	pop    %ecx
   12368:	5a                   	pop    %edx
   12369:	5e                   	pop    %esi
   1236a:	5f                   	pop    %edi
   1236b:	5d                   	pop    %ebp
   1236c:	58                   	pop    %eax
   1236d:	1f                   	pop    %ds
   1236e:	07                   	pop    %es
   1236f:	0f a1                	pop    %fs
   12371:	0f a9                	pop    %gs
   12373:	cf                   	iret   

00012374 <invalid_tss_handler>:
   12374:	0f a8                	push   %gs
   12376:	0f a0                	push   %fs
   12378:	06                   	push   %es
   12379:	1e                   	push   %ds
   1237a:	50                   	push   %eax
   1237b:	55                   	push   %ebp
   1237c:	57                   	push   %edi
   1237d:	56                   	push   %esi
   1237e:	52                   	push   %edx
   1237f:	51                   	push   %ecx
   12380:	53                   	push   %ebx
   12381:	ba 18 00 00 00       	mov    $0x18,%edx
   12386:	8e da                	mov    %edx,%ds
   12388:	8e c2                	mov    %edx,%es
   1238a:	e8 11 fc ff ff       	call   11fa0 <invalid_tss_routine>
   1238f:	5b                   	pop    %ebx
   12390:	59                   	pop    %ecx
   12391:	5a                   	pop    %edx
   12392:	5e                   	pop    %esi
   12393:	5f                   	pop    %edi
   12394:	5d                   	pop    %ebp
   12395:	58                   	pop    %eax
   12396:	1f                   	pop    %ds
   12397:	07                   	pop    %es
   12398:	0f a1                	pop    %fs
   1239a:	0f a9                	pop    %gs
   1239c:	cf                   	iret   

0001239d <segment_not_present_handler>:
   1239d:	0f a8                	push   %gs
   1239f:	0f a0                	push   %fs
   123a1:	06                   	push   %es
   123a2:	1e                   	push   %ds
   123a3:	50                   	push   %eax
   123a4:	55                   	push   %ebp
   123a5:	57                   	push   %edi
   123a6:	56                   	push   %esi
   123a7:	52                   	push   %edx
   123a8:	51                   	push   %ecx
   123a9:	53                   	push   %ebx
   123aa:	ba 18 00 00 00       	mov    $0x18,%edx
   123af:	8e da                	mov    %edx,%ds
   123b1:	8e c2                	mov    %edx,%es
   123b3:	e8 08 fc ff ff       	call   11fc0 <segment_not_present_routine>
   123b8:	5b                   	pop    %ebx
   123b9:	59                   	pop    %ecx
   123ba:	5a                   	pop    %edx
   123bb:	5e                   	pop    %esi
   123bc:	5f                   	pop    %edi
   123bd:	5d                   	pop    %ebp
   123be:	58                   	pop    %eax
   123bf:	1f                   	pop    %ds
   123c0:	07                   	pop    %es
   123c1:	0f a1                	pop    %fs
   123c3:	0f a9                	pop    %gs
   123c5:	cf                   	iret   

000123c6 <stack_exception_handler>:
   123c6:	0f a8                	push   %gs
   123c8:	0f a0                	push   %fs
   123ca:	06                   	push   %es
   123cb:	1e                   	push   %ds
   123cc:	50                   	push   %eax
   123cd:	55                   	push   %ebp
   123ce:	57                   	push   %edi
   123cf:	56                   	push   %esi
   123d0:	52                   	push   %edx
   123d1:	51                   	push   %ecx
   123d2:	53                   	push   %ebx
   123d3:	ba 18 00 00 00       	mov    $0x18,%edx
   123d8:	8e da                	mov    %edx,%ds
   123da:	8e c2                	mov    %edx,%es
   123dc:	e8 ff fb ff ff       	call   11fe0 <stack_exception_routine>
   123e1:	5b                   	pop    %ebx
   123e2:	59                   	pop    %ecx
   123e3:	5a                   	pop    %edx
   123e4:	5e                   	pop    %esi
   123e5:	5f                   	pop    %edi
   123e6:	5d                   	pop    %ebp
   123e7:	58                   	pop    %eax
   123e8:	1f                   	pop    %ds
   123e9:	07                   	pop    %es
   123ea:	0f a1                	pop    %fs
   123ec:	0f a9                	pop    %gs
   123ee:	cf                   	iret   

000123ef <general_protection_handler>:
   123ef:	0f a8                	push   %gs
   123f1:	0f a0                	push   %fs
   123f3:	06                   	push   %es
   123f4:	1e                   	push   %ds
   123f5:	50                   	push   %eax
   123f6:	55                   	push   %ebp
   123f7:	57                   	push   %edi
   123f8:	56                   	push   %esi
   123f9:	52                   	push   %edx
   123fa:	51                   	push   %ecx
   123fb:	53                   	push   %ebx
   123fc:	ba 18 00 00 00       	mov    $0x18,%edx
   12401:	8e da                	mov    %edx,%ds
   12403:	8e c2                	mov    %edx,%es
   12405:	e8 f6 fb ff ff       	call   12000 <general_protection_routine>
   1240a:	5b                   	pop    %ebx
   1240b:	59                   	pop    %ecx
   1240c:	5a                   	pop    %edx
   1240d:	5e                   	pop    %esi
   1240e:	5f                   	pop    %edi
   1240f:	5d                   	pop    %ebp
   12410:	58                   	pop    %eax
   12411:	1f                   	pop    %ds
   12412:	07                   	pop    %es
   12413:	0f a1                	pop    %fs
   12415:	0f a9                	pop    %gs
   12417:	cf                   	iret   

00012418 <page_fault_handler>:
   12418:	0f a8                	push   %gs
   1241a:	0f a0                	push   %fs
   1241c:	06                   	push   %es
   1241d:	1e                   	push   %ds
   1241e:	50                   	push   %eax
   1241f:	55                   	push   %ebp
   12420:	57                   	push   %edi
   12421:	56                   	push   %esi
   12422:	52                   	push   %edx
   12423:	51                   	push   %ecx
   12424:	53                   	push   %ebx
   12425:	ba 18 00 00 00       	mov    $0x18,%edx
   1242a:	8e da                	mov    %edx,%ds
   1242c:	8e c2                	mov    %edx,%es
   1242e:	e8 ed fb ff ff       	call   12020 <page_fault_routine>
   12433:	5b                   	pop    %ebx
   12434:	59                   	pop    %ecx
   12435:	5a                   	pop    %edx
   12436:	5e                   	pop    %esi
   12437:	5f                   	pop    %edi
   12438:	5d                   	pop    %ebp
   12439:	58                   	pop    %eax
   1243a:	1f                   	pop    %ds
   1243b:	07                   	pop    %es
   1243c:	0f a1                	pop    %fs
   1243e:	0f a9                	pop    %gs
   12440:	cf                   	iret   

00012441 <intel_reserved_handler>:
   12441:	0f a8                	push   %gs
   12443:	0f a0                	push   %fs
   12445:	06                   	push   %es
   12446:	1e                   	push   %ds
   12447:	50                   	push   %eax
   12448:	55                   	push   %ebp
   12449:	57                   	push   %edi
   1244a:	56                   	push   %esi
   1244b:	52                   	push   %edx
   1244c:	51                   	push   %ecx
   1244d:	53                   	push   %ebx
   1244e:	ba 18 00 00 00       	mov    $0x18,%edx
   12453:	8e da                	mov    %edx,%ds
   12455:	8e c2                	mov    %edx,%es
   12457:	e8 e4 fb ff ff       	call   12040 <intel_reserved_routine>
   1245c:	5b                   	pop    %ebx
   1245d:	59                   	pop    %ecx
   1245e:	5a                   	pop    %edx
   1245f:	5e                   	pop    %esi
   12460:	5f                   	pop    %edi
   12461:	5d                   	pop    %ebp
   12462:	58                   	pop    %eax
   12463:	1f                   	pop    %ds
   12464:	07                   	pop    %es
   12465:	0f a1                	pop    %fs
   12467:	0f a9                	pop    %gs
   12469:	cf                   	iret   

0001246a <floating_point_error_handler>:
   1246a:	0f a8                	push   %gs
   1246c:	0f a0                	push   %fs
   1246e:	06                   	push   %es
   1246f:	1e                   	push   %ds
   12470:	50                   	push   %eax
   12471:	55                   	push   %ebp
   12472:	57                   	push   %edi
   12473:	56                   	push   %esi
   12474:	52                   	push   %edx
   12475:	51                   	push   %ecx
   12476:	53                   	push   %ebx
   12477:	ba 18 00 00 00       	mov    $0x18,%edx
   1247c:	8e da                	mov    %edx,%ds
   1247e:	8e c2                	mov    %edx,%es
   12480:	e8 db fb ff ff       	call   12060 <floating_point_error_routine>
   12485:	5b                   	pop    %ebx
   12486:	59                   	pop    %ecx
   12487:	5a                   	pop    %edx
   12488:	5e                   	pop    %esi
   12489:	5f                   	pop    %edi
   1248a:	5d                   	pop    %ebp
   1248b:	58                   	pop    %eax
   1248c:	1f                   	pop    %ds
   1248d:	07                   	pop    %es
   1248e:	0f a1                	pop    %fs
   12490:	0f a9                	pop    %gs
   12492:	cf                   	iret   

00012493 <alignment_check_handler>:
   12493:	0f a8                	push   %gs
   12495:	0f a0                	push   %fs
   12497:	06                   	push   %es
   12498:	1e                   	push   %ds
   12499:	50                   	push   %eax
   1249a:	55                   	push   %ebp
   1249b:	57                   	push   %edi
   1249c:	56                   	push   %esi
   1249d:	52                   	push   %edx
   1249e:	51                   	push   %ecx
   1249f:	53                   	push   %ebx
   124a0:	ba 18 00 00 00       	mov    $0x18,%edx
   124a5:	8e da                	mov    %edx,%ds
   124a7:	8e c2                	mov    %edx,%es
   124a9:	e8 d2 fb ff ff       	call   12080 <alignment_check_routine>
   124ae:	5b                   	pop    %ebx
   124af:	59                   	pop    %ecx
   124b0:	5a                   	pop    %edx
   124b1:	5e                   	pop    %esi
   124b2:	5f                   	pop    %edi
   124b3:	5d                   	pop    %ebp
   124b4:	58                   	pop    %eax
   124b5:	1f                   	pop    %ds
   124b6:	07                   	pop    %es
   124b7:	0f a1                	pop    %fs
   124b9:	0f a9                	pop    %gs
   124bb:	cf                   	iret   
   124bc:	66 90                	xchg   %ax,%ax
   124be:	66 90                	xchg   %ax,%ax

000124c0 <zeos_sys_init_sems>:
   124c0:	55                   	push   %ebp
   124c1:	b8 c0 4a 01 00       	mov    $0x14ac0,%eax
   124c6:	89 e5                	mov    %esp,%ebp
   124c8:	90                   	nop
   124c9:	8d b4 26 00 00 00 00 	lea    0x0(%esi,%eiz,1),%esi
   124d0:	c7 00 00 00 00 00    	movl   $0x0,(%eax)
   124d6:	83 c0 14             	add    $0x14,%eax
   124d9:	3d 88 4b 01 00       	cmp    $0x14b88,%eax
   124de:	75 f0                	jne    124d0 <zeos_sys_init_sems+0x10>
   124e0:	31 c0                	xor    %eax,%eax
   124e2:	5d                   	pop    %ebp
   124e3:	c3                   	ret    
   124e4:	8d b6 00 00 00 00    	lea    0x0(%esi),%esi
   124ea:	8d bf 00 00 00 00    	lea    0x0(%edi),%edi

000124f0 <zeos_sys_sem_init>:
   124f0:	55                   	push   %ebp
   124f1:	89 e5                	mov    %esp,%ebp
   124f3:	56                   	push   %esi
   124f4:	53                   	push   %ebx
   124f5:	8b 45 08             	mov    0x8(%ebp),%eax
   124f8:	83 f8 0a             	cmp    $0xa,%eax
   124fb:	77 53                	ja     12550 <zeos_sys_sem_init+0x60>
   124fd:	8d 14 80             	lea    (%eax,%eax,4),%edx
   12500:	c1 e2 02             	shl    $0x2,%edx
   12503:	8b b2 c0 4a 01 00    	mov    0x14ac0(%edx),%esi
   12509:	8d 9a c0 4a 01 00    	lea    0x14ac0(%edx),%ebx
   1250f:	85 f6                	test   %esi,%esi
   12511:	75 3d                	jne    12550 <zeos_sys_sem_init+0x60>
   12513:	8b 45 0c             	mov    0xc(%ebp),%eax
   12516:	c7 82 c0 4a 01 00 01 	movl   $0x1,0x14ac0(%edx)
   1251d:	00 00 00 
   12520:	83 c3 0c             	add    $0xc,%ebx
   12523:	89 82 c4 4a 01 00    	mov    %eax,0x14ac4(%edx)
   12529:	e8 e2 e4 ff ff       	call   10a10 <current>
   1252e:	8b 00                	mov    (%eax),%eax
   12530:	83 ec 0c             	sub    $0xc,%esp
   12533:	89 43 fc             	mov    %eax,-0x4(%ebx)
   12536:	53                   	push   %ebx
   12537:	e8 14 f3 ff ff       	call   11850 <INIT_LIST_HEAD>
   1253c:	83 c4 10             	add    $0x10,%esp
   1253f:	8d 65 f8             	lea    -0x8(%ebp),%esp
   12542:	89 f0                	mov    %esi,%eax
   12544:	5b                   	pop    %ebx
   12545:	5e                   	pop    %esi
   12546:	5d                   	pop    %ebp
   12547:	c3                   	ret    
   12548:	90                   	nop
   12549:	8d b4 26 00 00 00 00 	lea    0x0(%esi,%eiz,1),%esi
   12550:	8d 65 f8             	lea    -0x8(%ebp),%esp
   12553:	be ff ff ff ff       	mov    $0xffffffff,%esi
   12558:	89 f0                	mov    %esi,%eax
   1255a:	5b                   	pop    %ebx
   1255b:	5e                   	pop    %esi
   1255c:	5d                   	pop    %ebp
   1255d:	c3                   	ret    
   1255e:	66 90                	xchg   %ax,%ax

00012560 <zeos_sys_sem_destroy>:
   12560:	55                   	push   %ebp
   12561:	89 e5                	mov    %esp,%ebp
   12563:	57                   	push   %edi
   12564:	56                   	push   %esi
   12565:	53                   	push   %ebx
   12566:	83 ec 1c             	sub    $0x1c,%esp
   12569:	8b 45 08             	mov    0x8(%ebp),%eax
   1256c:	83 f8 0a             	cmp    $0xa,%eax
   1256f:	0f 87 83 00 00 00    	ja     125f8 <zeos_sys_sem_destroy+0x98>
   12575:	8d 34 80             	lea    (%eax,%eax,4),%esi
   12578:	c1 e6 02             	shl    $0x2,%esi
   1257b:	8b 8e c0 4a 01 00    	mov    0x14ac0(%esi),%ecx
   12581:	8d 96 c0 4a 01 00    	lea    0x14ac0(%esi),%edx
   12587:	85 c9                	test   %ecx,%ecx
   12589:	7e 6d                	jle    125f8 <zeos_sys_sem_destroy+0x98>
   1258b:	8b 9e c8 4a 01 00    	mov    0x14ac8(%esi),%ebx
   12591:	89 55 e4             	mov    %edx,-0x1c(%ebp)
   12594:	e8 77 e4 ff ff       	call   10a10 <current>
   12599:	3b 18                	cmp    (%eax),%ebx
   1259b:	75 5b                	jne    125f8 <zeos_sys_sem_destroy+0x98>
   1259d:	8b 55 e4             	mov    -0x1c(%ebp),%edx
   125a0:	c7 86 c0 4a 01 00 00 	movl   $0x0,0x14ac0(%esi)
   125a7:	00 00 00 
   125aa:	8b 5a 0c             	mov    0xc(%edx),%ebx
   125ad:	8d 42 0c             	lea    0xc(%edx),%eax
   125b0:	89 45 e4             	mov    %eax,-0x1c(%ebp)
   125b3:	39 c3                	cmp    %eax,%ebx
   125b5:	8b 3b                	mov    (%ebx),%edi
   125b7:	75 09                	jne    125c2 <zeos_sys_sem_destroy+0x62>
   125b9:	eb 30                	jmp    125eb <zeos_sys_sem_destroy+0x8b>
   125bb:	90                   	nop
   125bc:	8d 74 26 00          	lea    0x0(%esi,%eiz,1),%esi
   125c0:	89 d7                	mov    %edx,%edi
   125c2:	83 ec 0c             	sub    $0xc,%esp
   125c5:	53                   	push   %ebx
   125c6:	e8 d5 f2 ff ff       	call   118a0 <list_del>
   125cb:	58                   	pop    %eax
   125cc:	5a                   	pop    %edx
   125cd:	68 d4 44 01 00       	push   $0x144d4
   125d2:	53                   	push   %ebx
   125d3:	89 fb                	mov    %edi,%ebx
   125d5:	83 ae c0 4a 01 00 01 	subl   $0x1,0x14ac0(%esi)
   125dc:	e8 9f f2 ff ff       	call   11880 <list_add_tail>
   125e1:	83 c4 10             	add    $0x10,%esp
   125e4:	39 7d e4             	cmp    %edi,-0x1c(%ebp)
   125e7:	8b 17                	mov    (%edi),%edx
   125e9:	75 d5                	jne    125c0 <zeos_sys_sem_destroy+0x60>
   125eb:	8d 65 f4             	lea    -0xc(%ebp),%esp
   125ee:	31 c0                	xor    %eax,%eax
   125f0:	5b                   	pop    %ebx
   125f1:	5e                   	pop    %esi
   125f2:	5f                   	pop    %edi
   125f3:	5d                   	pop    %ebp
   125f4:	c3                   	ret    
   125f5:	8d 76 00             	lea    0x0(%esi),%esi
   125f8:	8d 65 f4             	lea    -0xc(%ebp),%esp
   125fb:	b8 ff ff ff ff       	mov    $0xffffffff,%eax
   12600:	5b                   	pop    %ebx
   12601:	5e                   	pop    %esi
   12602:	5f                   	pop    %edi
   12603:	5d                   	pop    %ebp
   12604:	c3                   	ret    
   12605:	8d 74 26 00          	lea    0x0(%esi,%eiz,1),%esi
   12609:	8d bc 27 00 00 00 00 	lea    0x0(%edi,%eiz,1),%edi

00012610 <zeos_sys_sem_signal>:
   12610:	55                   	push   %ebp
   12611:	89 e5                	mov    %esp,%ebp
   12613:	53                   	push   %ebx
   12614:	83 ec 14             	sub    $0x14,%esp
   12617:	8b 45 08             	mov    0x8(%ebp),%eax
   1261a:	83 f8 0a             	cmp    $0xa,%eax
   1261d:	77 61                	ja     12680 <zeos_sys_sem_signal+0x70>
   1261f:	8d 04 80             	lea    (%eax,%eax,4),%eax
   12622:	c1 e0 02             	shl    $0x2,%eax
   12625:	8b 88 c0 4a 01 00    	mov    0x14ac0(%eax),%ecx
   1262b:	8d 98 c0 4a 01 00    	lea    0x14ac0(%eax),%ebx
   12631:	85 c9                	test   %ecx,%ecx
   12633:	7e 4b                	jle    12680 <zeos_sys_sem_signal+0x70>
   12635:	8d 43 0c             	lea    0xc(%ebx),%eax
   12638:	83 ec 0c             	sub    $0xc,%esp
   1263b:	50                   	push   %eax
   1263c:	e8 9f f2 ff ff       	call   118e0 <list_empty>
   12641:	83 c4 10             	add    $0x10,%esp
   12644:	85 c0                	test   %eax,%eax
   12646:	74 10                	je     12658 <zeos_sys_sem_signal+0x48>
   12648:	83 43 04 01          	addl   $0x1,0x4(%ebx)
   1264c:	31 c0                	xor    %eax,%eax
   1264e:	8b 5d fc             	mov    -0x4(%ebp),%ebx
   12651:	c9                   	leave  
   12652:	c3                   	ret    
   12653:	90                   	nop
   12654:	8d 74 26 00          	lea    0x0(%esi,%eiz,1),%esi
   12658:	8b 5b 0c             	mov    0xc(%ebx),%ebx
   1265b:	83 ec 0c             	sub    $0xc,%esp
   1265e:	89 45 f4             	mov    %eax,-0xc(%ebp)
   12661:	53                   	push   %ebx
   12662:	e8 39 f2 ff ff       	call   118a0 <list_del>
   12667:	58                   	pop    %eax
   12668:	5a                   	pop    %edx
   12669:	68 d4 44 01 00       	push   $0x144d4
   1266e:	53                   	push   %ebx
   1266f:	e8 0c f2 ff ff       	call   11880 <list_add_tail>
   12674:	8b 45 f4             	mov    -0xc(%ebp),%eax
   12677:	83 c4 10             	add    $0x10,%esp
   1267a:	8b 5d fc             	mov    -0x4(%ebp),%ebx
   1267d:	c9                   	leave  
   1267e:	c3                   	ret    
   1267f:	90                   	nop
   12680:	b8 ff ff ff ff       	mov    $0xffffffff,%eax
   12685:	eb c7                	jmp    1264e <zeos_sys_sem_signal+0x3e>
   12687:	89 f6                	mov    %esi,%esi
   12689:	8d bc 27 00 00 00 00 	lea    0x0(%edi,%eiz,1),%edi

00012690 <zeos_sys_sem_wait>:
   12690:	55                   	push   %ebp
   12691:	89 e5                	mov    %esp,%ebp
   12693:	56                   	push   %esi
   12694:	53                   	push   %ebx
   12695:	8b 45 08             	mov    0x8(%ebp),%eax
   12698:	83 f8 0a             	cmp    $0xa,%eax
   1269b:	77 63                	ja     12700 <zeos_sys_sem_wait+0x70>
   1269d:	8d 1c 80             	lea    (%eax,%eax,4),%ebx
   126a0:	c1 e3 02             	shl    $0x2,%ebx
   126a3:	8b 83 c0 4a 01 00    	mov    0x14ac0(%ebx),%eax
   126a9:	8d b3 c0 4a 01 00    	lea    0x14ac0(%ebx),%esi
   126af:	85 c0                	test   %eax,%eax
   126b1:	7e 4d                	jle    12700 <zeos_sys_sem_wait+0x70>
   126b3:	8b 46 04             	mov    0x4(%esi),%eax
   126b6:	85 c0                	test   %eax,%eax
   126b8:	7e 16                	jle    126d0 <zeos_sys_sem_wait+0x40>
   126ba:	83 e8 01             	sub    $0x1,%eax
   126bd:	89 46 04             	mov    %eax,0x4(%esi)
   126c0:	31 c0                	xor    %eax,%eax
   126c2:	8d 65 f8             	lea    -0x8(%ebp),%esp
   126c5:	5b                   	pop    %ebx
   126c6:	5e                   	pop    %esi
   126c7:	5d                   	pop    %ebp
   126c8:	c3                   	ret    
   126c9:	8d b4 26 00 00 00 00 	lea    0x0(%esi,%eiz,1),%esi
   126d0:	e8 3b e3 ff ff       	call   10a10 <current>
   126d5:	83 c6 0c             	add    $0xc,%esi
   126d8:	83 ec 08             	sub    $0x8,%esp
   126db:	56                   	push   %esi
   126dc:	50                   	push   %eax
   126dd:	e8 de e1 ff ff       	call   108c0 <update_process_state_rr>
   126e2:	e8 59 e2 ff ff       	call   10940 <sched_next_rr>
   126e7:	8b 83 c0 4a 01 00    	mov    0x14ac0(%ebx),%eax
   126ed:	83 c4 10             	add    $0x10,%esp
   126f0:	85 c0                	test   %eax,%eax
   126f2:	78 13                	js     12707 <zeos_sys_sem_wait+0x77>
   126f4:	8d 65 f8             	lea    -0x8(%ebp),%esp
   126f7:	31 c0                	xor    %eax,%eax
   126f9:	5b                   	pop    %ebx
   126fa:	5e                   	pop    %esi
   126fb:	5d                   	pop    %ebp
   126fc:	c3                   	ret    
   126fd:	8d 76 00             	lea    0x0(%esi),%esi
   12700:	b8 ff ff ff ff       	mov    $0xffffffff,%eax
   12705:	eb bb                	jmp    126c2 <zeos_sys_sem_wait+0x32>
   12707:	83 c0 01             	add    $0x1,%eax
   1270a:	89 83 c0 4a 01 00    	mov    %eax,0x14ac0(%ebx)
   12710:	b8 fe ff ff ff       	mov    $0xfffffffe,%eax
   12715:	eb ab                	jmp    126c2 <zeos_sys_sem_wait+0x32>
   12717:	89 f6                	mov    %esi,%esi
   12719:	8d bc 27 00 00 00 00 	lea    0x0(%edi,%eiz,1),%edi

00012720 <zeos_is_blocked_pid>:
   12720:	55                   	push   %ebp
   12721:	89 e5                	mov    %esp,%ebp
   12723:	57                   	push   %edi
   12724:	56                   	push   %esi
   12725:	53                   	push   %ebx
   12726:	be cc 4a 01 00       	mov    $0x14acc,%esi
   1272b:	83 ec 0c             	sub    $0xc,%esp
   1272e:	8b 7d 08             	mov    0x8(%ebp),%edi
   12731:	8b 1e                	mov    (%esi),%ebx
   12733:	39 f3                	cmp    %esi,%ebx
   12735:	75 0f                	jne    12746 <zeos_is_blocked_pid+0x26>
   12737:	eb 2f                	jmp    12768 <zeos_is_blocked_pid+0x48>
   12739:	8d b4 26 00 00 00 00 	lea    0x0(%esi,%eiz,1),%esi
   12740:	8b 1b                	mov    (%ebx),%ebx
   12742:	39 f3                	cmp    %esi,%ebx
   12744:	74 22                	je     12768 <zeos_is_blocked_pid+0x48>
   12746:	83 ec 0c             	sub    $0xc,%esp
   12749:	53                   	push   %ebx
   1274a:	e8 61 de ff ff       	call   105b0 <list_head_to_task_struct>
   1274f:	83 c4 10             	add    $0x10,%esp
   12752:	39 38                	cmp    %edi,(%eax)
   12754:	75 ea                	jne    12740 <zeos_is_blocked_pid+0x20>
   12756:	8d 65 f4             	lea    -0xc(%ebp),%esp
   12759:	b8 01 00 00 00       	mov    $0x1,%eax
   1275e:	5b                   	pop    %ebx
   1275f:	5e                   	pop    %esi
   12760:	5f                   	pop    %edi
   12761:	5d                   	pop    %ebp
   12762:	c3                   	ret    
   12763:	90                   	nop
   12764:	8d 74 26 00          	lea    0x0(%esi,%eiz,1),%esi
   12768:	83 c6 14             	add    $0x14,%esi
   1276b:	81 fe 94 4b 01 00    	cmp    $0x14b94,%esi
   12771:	75 be                	jne    12731 <zeos_is_blocked_pid+0x11>
   12773:	8d 65 f4             	lea    -0xc(%ebp),%esp
   12776:	31 c0                	xor    %eax,%eax
   12778:	5b                   	pop    %ebx
   12779:	5e                   	pop    %esi
   1277a:	5f                   	pop    %edi
   1277b:	5d                   	pop    %ebp
   1277c:	c3                   	ret    
   1277d:	8d 76 00             	lea    0x0(%esi),%esi

00012780 <zeos_sys_nice>:
   12780:	55                   	push   %ebp
   12781:	89 e5                	mov    %esp,%ebp
   12783:	53                   	push   %ebx
   12784:	83 ec 04             	sub    $0x4,%esp
   12787:	e8 84 e2 ff ff       	call   10a10 <current>
   1278c:	83 ec 0c             	sub    $0xc,%esp
   1278f:	50                   	push   %eax
   12790:	e8 ab e0 ff ff       	call   10840 <get_quantum>
   12795:	89 c3                	mov    %eax,%ebx
   12797:	e8 74 e2 ff ff       	call   10a10 <current>
   1279c:	5a                   	pop    %edx
   1279d:	59                   	pop    %ecx
   1279e:	ff 75 08             	pushl  0x8(%ebp)
   127a1:	50                   	push   %eax
   127a2:	e8 a9 e0 ff ff       	call   10850 <set_quantum>
   127a7:	89 d8                	mov    %ebx,%eax
   127a9:	8b 5d fc             	mov    -0x4(%ebp),%ebx
   127ac:	c9                   	leave  
   127ad:	c3                   	ret    
   127ae:	66 90                	xchg   %ax,%ax

000127b0 <zeos_init_auxjp>:
   127b0:	55                   	push   %ebp
   127b1:	89 e5                	mov    %esp,%ebp
   127b3:	83 ec 14             	sub    $0x14,%esp
   127b6:	68 98 3b 01 00       	push   $0x13b98
   127bb:	e8 a0 dd ff ff       	call   10560 <printk>
   127c0:	b8 c0 4a 01 00       	mov    $0x14ac0,%eax
   127c5:	83 c4 10             	add    $0x10,%esp
   127c8:	90                   	nop
   127c9:	8d b4 26 00 00 00 00 	lea    0x0(%esi,%eiz,1),%esi
   127d0:	c7 00 00 00 00 00    	movl   $0x0,(%eax)
   127d6:	83 c0 14             	add    $0x14,%eax
   127d9:	3d 88 4b 01 00       	cmp    $0x14b88,%eax
   127de:	75 f0                	jne    127d0 <zeos_init_auxjp+0x20>
   127e0:	83 ec 0c             	sub    $0xc,%esp
   127e3:	68 eb 29 01 00       	push   $0x129eb
   127e8:	e8 73 dd ff ff       	call   10560 <printk>
   127ed:	c7 04 24 ef 29 01 00 	movl   $0x129ef,(%esp)
   127f4:	e8 67 dd ff ff       	call   10560 <printk>
   127f9:	83 c4 0c             	add    $0xc,%esp
   127fc:	6a 03                	push   $0x3
   127fe:	68 1e 28 01 00       	push   $0x1281e
   12803:	68 82 00 00 00       	push   $0x82
   12808:	e8 43 d9 ff ff       	call   10150 <setTrapHandler>
   1280d:	c7 04 24 eb 29 01 00 	movl   $0x129eb,(%esp)
   12814:	e8 47 dd ff ff       	call   10560 <printk>
   12819:	83 c4 10             	add    $0x10,%esp
   1281c:	c9                   	leave  
   1281d:	c3                   	ret    

0001281e <zeos_call_handler>:
   1281e:	0f a8                	push   %gs
   12820:	0f a0                	push   %fs
   12822:	06                   	push   %es
   12823:	1e                   	push   %ds
   12824:	50                   	push   %eax
   12825:	55                   	push   %ebp
   12826:	57                   	push   %edi
   12827:	56                   	push   %esi
   12828:	52                   	push   %edx
   12829:	51                   	push   %ecx
   1282a:	53                   	push   %ebx
   1282b:	ba 18 00 00 00       	mov    $0x18,%edx
   12830:	8e da                	mov    %edx,%ds
   12832:	8e c2                	mov    %edx,%es
   12834:	ff 14 85 4d 28 01 00 	call   *0x1284d(,%eax,4)
   1283b:	89 44 24 18          	mov    %eax,0x18(%esp)
   1283f:	5b                   	pop    %ebx
   12840:	59                   	pop    %ecx
   12841:	5a                   	pop    %edx
   12842:	5e                   	pop    %esi
   12843:	5f                   	pop    %edi
   12844:	5d                   	pop    %ebp
   12845:	58                   	pop    %eax
   12846:	1f                   	pop    %ds
   12847:	07                   	pop    %es
   12848:	0f a1                	pop    %fs
   1284a:	0f a9                	pop    %gs
   1284c:	cf                   	iret   

0001284d <zeos_call_table>:
   1284d:	f0 24 01             	lock and $0x1,%al
   12850:	00 60 25             	add    %ah,0x25(%eax)
   12853:	01 00                	add    %eax,(%eax)
   12855:	10 26                	adc    %ah,(%esi)
   12857:	01 00                	add    %eax,(%eax)
   12859:	90                   	nop
   1285a:	26 01 00             	add    %eax,%es:(%eax)
   1285d:	80 27 01             	andb   $0x1,(%edi)
	...
